Component: ARM Compiler 5.06 update 1 (build 61) Tool: armlink [4d35a8]

==============================================================================

Section Cross References

    startup_stm32f10x_hd.o(STACK) refers (Special) to heapauxi.o(.text) for __use_two_region_memory
    startup_stm32f10x_hd.o(HEAP) refers (Special) to heapauxi.o(.text) for __use_two_region_memory
    startup_stm32f10x_hd.o(RESET) refers (Special) to heapauxi.o(.text) for __use_two_region_memory
    startup_stm32f10x_hd.o(RESET) refers to startup_stm32f10x_hd.o(.text) for Reset_Handler
    startup_stm32f10x_hd.o(RESET) refers to exti.o(i.EXTI3_IRQHandler) for EXTI3_IRQHandler
    startup_stm32f10x_hd.o(RESET) refers to exti.o(i.EXTI4_IRQHandler) for EXTI4_IRQHandler
    startup_stm32f10x_hd.o(RESET) refers to stm32f10x_it.o(i.USB_HP_CAN1_TX_IRQHandler) for USB_HP_CAN1_TX_IRQHandler
    startup_stm32f10x_hd.o(RESET) refers to stm32f10x_it.o(i.USB_LP_CAN1_RX0_IRQHandler) for USB_LP_CAN1_RX0_IRQHandler
    startup_stm32f10x_hd.o(RESET) refers to exti.o(i.EXTI9_5_IRQHandler) for EXTI9_5_IRQHandler
    startup_stm32f10x_hd.o(RESET) refers to timer.o(i.TIM3_IRQHandler) for TIM3_IRQHandler
    startup_stm32f10x_hd.o(RESET) refers to usart.o(i.USART1_IRQHandler) for USART1_IRQHandler
    startup_stm32f10x_hd.o(RESET) refers to usart.o(i.USART2_IRQHandler) for USART2_IRQHandler
    startup_stm32f10x_hd.o(RESET) refers to timer.o(i.TIM5_IRQHandler) for TIM5_IRQHandler
    startup_stm32f10x_hd.o(RESET) refers to timer.o(i.TIM6_IRQHandler) for TIM6_IRQHandler
    startup_stm32f10x_hd.o(.text) refers (Special) to heapauxi.o(.text) for __use_two_region_memory
    startup_stm32f10x_hd.o(.text) refers to startup_stm32f10x_hd.o(STACK) for __initial_sp
    startup_stm32f10x_hd.o(.text) refers to __main.o(!!!main) for __main
    startup_stm32f10x_hd.o(.text) refers to startup_stm32f10x_hd.o(HEAP) for Heap_Mem
    flash.o(i.SPI_FLASH_Write_Disable) refers to spi.o(i.SPI2_ReadWriteByte) for SPI2_ReadWriteByte
    flash.o(i.SPI_FLASH_Write_Enable) refers to spi.o(i.SPI2_ReadWriteByte) for SPI2_ReadWriteByte
    flash.o(i.SPI_FLASH_Write_SR) refers to spi.o(i.SPI2_ReadWriteByte) for SPI2_ReadWriteByte
    flash.o(i.SPI_Flash_Erase_Chip) refers to flash.o(i.SPI_FLASH_Write_Enable) for SPI_FLASH_Write_Enable
    flash.o(i.SPI_Flash_Erase_Chip) refers to flash.o(i.SPI_Flash_Wait_Busy) for SPI_Flash_Wait_Busy
    flash.o(i.SPI_Flash_Erase_Chip) refers to spi.o(i.SPI2_ReadWriteByte) for SPI2_ReadWriteByte
    flash.o(i.SPI_Flash_Erase_Sector) refers to _printf_percent.o(.ARM.Collect$$_printf_percent$$00000000) for _printf_percent
    flash.o(i.SPI_Flash_Erase_Sector) refers to _printf_x.o(.ARM.Collect$$_printf_percent$$0000000C) for _printf_x
    flash.o(i.SPI_Flash_Erase_Sector) refers to _printf_hex_int.o(.text) for _printf_longlong_hex
    flash.o(i.SPI_Flash_Erase_Sector) refers to noretval__2printf.o(.text) for __2printf
    flash.o(i.SPI_Flash_Erase_Sector) refers to flash.o(i.SPI_FLASH_Write_Enable) for SPI_FLASH_Write_Enable
    flash.o(i.SPI_Flash_Erase_Sector) refers to flash.o(i.SPI_Flash_Wait_Busy) for SPI_Flash_Wait_Busy
    flash.o(i.SPI_Flash_Erase_Sector) refers to spi.o(i.SPI2_ReadWriteByte) for SPI2_ReadWriteByte
    flash.o(i.SPI_Flash_Init) refers to spi.o(i.SPI2_Init) for SPI2_Init
    flash.o(i.SPI_Flash_Init) refers to spi.o(i.SPI2_SetSpeed) for SPI2_SetSpeed
    flash.o(i.SPI_Flash_Init) refers to flash.o(i.SPI_Flash_ReadID) for SPI_Flash_ReadID
    flash.o(i.SPI_Flash_Init) refers to flash.o(.data) for SPI_FLASH_TYPE
    flash.o(i.SPI_Flash_PowerDown) refers to spi.o(i.SPI2_ReadWriteByte) for SPI2_ReadWriteByte
    flash.o(i.SPI_Flash_PowerDown) refers to delay.o(i.delay_us) for delay_us
    flash.o(i.SPI_Flash_Read) refers to spi.o(i.SPI2_ReadWriteByte) for SPI2_ReadWriteByte
    flash.o(i.SPI_Flash_ReadID) refers to spi.o(i.SPI2_ReadWriteByte) for SPI2_ReadWriteByte
    flash.o(i.SPI_Flash_ReadSR) refers to spi.o(i.SPI2_ReadWriteByte) for SPI2_ReadWriteByte
    flash.o(i.SPI_Flash_WAKEUP) refers to spi.o(i.SPI2_ReadWriteByte) for SPI2_ReadWriteByte
    flash.o(i.SPI_Flash_WAKEUP) refers to delay.o(i.delay_us) for delay_us
    flash.o(i.SPI_Flash_Wait_Busy) refers to flash.o(i.SPI_Flash_ReadSR) for SPI_Flash_ReadSR
    flash.o(i.SPI_Flash_Write) refers to flash.o(i.SPI_Flash_Read) for SPI_Flash_Read
    flash.o(i.SPI_Flash_Write) refers to flash.o(i.SPI_Flash_Erase_Sector) for SPI_Flash_Erase_Sector
    flash.o(i.SPI_Flash_Write) refers to flash.o(i.SPI_Flash_Write_NoCheck) for SPI_Flash_Write_NoCheck
    flash.o(i.SPI_Flash_Write) refers to flash.o(.bss) for SPI_FLASH_BUFFER
    flash.o(i.SPI_Flash_Write_NoCheck) refers to flash.o(i.SPI_Flash_Write_Page) for SPI_Flash_Write_Page
    flash.o(i.SPI_Flash_Write_Page) refers to flash.o(i.SPI_FLASH_Write_Enable) for SPI_FLASH_Write_Enable
    flash.o(i.SPI_Flash_Write_Page) refers to spi.o(i.SPI2_ReadWriteByte) for SPI2_ReadWriteByte
    flash.o(i.SPI_Flash_Write_Page) refers to flash.o(i.SPI_Flash_Wait_Busy) for SPI_Flash_Wait_Busy
    spi.o(i.SPI2_Init) refers to spi.o(i.SPI2_ReadWriteByte) for SPI2_ReadWriteByte
    sram.o(i.fsmc_sram_test_read) refers to sram.o(i.FSMC_SRAM_ReadBuffer) for FSMC_SRAM_ReadBuffer
    sram.o(i.fsmc_sram_test_write) refers to sram.o(i.FSMC_SRAM_WriteBuffer) for FSMC_SRAM_WriteBuffer
    timer.o(i.TIM3_Int_Init) refers to sys.o(i.MY_NVIC_Init) for MY_NVIC_Init
    timer.o(i.TIM5_Cap_Init) refers to sys.o(i.MY_NVIC_Init) for MY_NVIC_Init
    timer.o(i.TIM5_IRQHandler) refers to timer.o(.data) for TIM5CH1_CAPTURE_STA
    timer.o(i.TIM6_IRQHandler) refers to _printf_percent.o(.ARM.Collect$$_printf_percent$$00000000) for _printf_percent
    timer.o(i.TIM6_IRQHandler) refers to _printf_d.o(.ARM.Collect$$_printf_percent$$00000009) for _printf_d
    timer.o(i.TIM6_IRQHandler) refers to _printf_dec.o(.text) for _printf_int_dec
    timer.o(i.TIM6_IRQHandler) refers to noretval__2printf.o(.text) for __2printf
    timer.o(i.TIM6_IRQHandler) refers to timer.o(.data) for ov_frame
    timer.o(i.TIM6_Int_Init) refers to sys.o(i.MY_NVIC_Init) for MY_NVIC_Init
    mmc_sd.o(i.SD_DisSelect) refers to mmc_sd.o(i.SD_SPI_ReadWriteByte) for SD_SPI_ReadWriteByte
    mmc_sd.o(i.SD_GetCID) refers to mmc_sd.o(i.SD_SendCmd) for SD_SendCmd
    mmc_sd.o(i.SD_GetCID) refers to mmc_sd.o(i.SD_RecvData) for SD_RecvData
    mmc_sd.o(i.SD_GetCID) refers to mmc_sd.o(i.SD_DisSelect) for SD_DisSelect
    mmc_sd.o(i.SD_GetCSD) refers to mmc_sd.o(i.SD_SendCmd) for SD_SendCmd
    mmc_sd.o(i.SD_GetCSD) refers to mmc_sd.o(i.SD_RecvData) for SD_RecvData
    mmc_sd.o(i.SD_GetCSD) refers to mmc_sd.o(i.SD_DisSelect) for SD_DisSelect
    mmc_sd.o(i.SD_GetResponse) refers to mmc_sd.o(i.SD_SPI_ReadWriteByte) for SD_SPI_ReadWriteByte
    mmc_sd.o(i.SD_GetSectorCount) refers to mmc_sd.o(i.SD_GetCSD) for SD_GetCSD
    mmc_sd.o(i.SD_Initialize) refers to mmc_sd.o(i.SD_SPI_Init) for SD_SPI_Init
    mmc_sd.o(i.SD_Initialize) refers to mmc_sd.o(i.SD_SPI_SpeedLow) for SD_SPI_SpeedLow
    mmc_sd.o(i.SD_Initialize) refers to mmc_sd.o(i.SD_SPI_ReadWriteByte) for SD_SPI_ReadWriteByte
    mmc_sd.o(i.SD_Initialize) refers to mmc_sd.o(i.SD_SendCmd) for SD_SendCmd
    mmc_sd.o(i.SD_Initialize) refers to mmc_sd.o(i.SD_DisSelect) for SD_DisSelect
    mmc_sd.o(i.SD_Initialize) refers to mmc_sd.o(i.SD_SPI_SpeedHigh) for SD_SPI_SpeedHigh
    mmc_sd.o(i.SD_Initialize) refers to mmc_sd.o(.data) for SD_Type
    mmc_sd.o(i.SD_ReadDisk) refers to mmc_sd.o(i.SD_SendCmd) for SD_SendCmd
    mmc_sd.o(i.SD_ReadDisk) refers to mmc_sd.o(i.SD_RecvData) for SD_RecvData
    mmc_sd.o(i.SD_ReadDisk) refers to mmc_sd.o(i.SD_DisSelect) for SD_DisSelect
    mmc_sd.o(i.SD_ReadDisk) refers to mmc_sd.o(.data) for SD_Type
    mmc_sd.o(i.SD_RecvData) refers to mmc_sd.o(i.SD_GetResponse) for SD_GetResponse
    mmc_sd.o(i.SD_RecvData) refers to spi.o(i.SPI2_ReadWriteByte) for SPI2_ReadWriteByte
    mmc_sd.o(i.SD_RecvData) refers to mmc_sd.o(i.SD_SPI_ReadWriteByte) for SD_SPI_ReadWriteByte
    mmc_sd.o(i.SD_SPI_Init) refers to spi.o(i.SPI2_Init) for SPI2_Init
    mmc_sd.o(i.SD_SPI_ReadWriteByte) refers to spi.o(i.SPI2_ReadWriteByte) for SPI2_ReadWriteByte
    mmc_sd.o(i.SD_SPI_SpeedHigh) refers to spi.o(i.SPI2_SetSpeed) for SPI2_SetSpeed
    mmc_sd.o(i.SD_SPI_SpeedLow) refers to spi.o(i.SPI2_SetSpeed) for SPI2_SetSpeed
    mmc_sd.o(i.SD_Select) refers to mmc_sd.o(i.SD_WaitReady) for SD_WaitReady
    mmc_sd.o(i.SD_Select) refers to mmc_sd.o(i.SD_DisSelect) for SD_DisSelect
    mmc_sd.o(i.SD_SendBlock) refers to mmc_sd.o(i.SD_WaitReady) for SD_WaitReady
    mmc_sd.o(i.SD_SendBlock) refers to mmc_sd.o(i.SD_SPI_ReadWriteByte) for SD_SPI_ReadWriteByte
    mmc_sd.o(i.SD_SendBlock) refers to spi.o(i.SPI2_ReadWriteByte) for SPI2_ReadWriteByte
    mmc_sd.o(i.SD_SendCmd) refers to mmc_sd.o(i.SD_DisSelect) for SD_DisSelect
    mmc_sd.o(i.SD_SendCmd) refers to mmc_sd.o(i.SD_Select) for SD_Select
    mmc_sd.o(i.SD_SendCmd) refers to mmc_sd.o(i.SD_SPI_ReadWriteByte) for SD_SPI_ReadWriteByte
    mmc_sd.o(i.SD_WaitReady) refers to mmc_sd.o(i.SD_SPI_ReadWriteByte) for SD_SPI_ReadWriteByte
    mmc_sd.o(i.SD_WriteDisk) refers to mmc_sd.o(i.SD_SendCmd) for SD_SendCmd
    mmc_sd.o(i.SD_WriteDisk) refers to mmc_sd.o(i.SD_SendBlock) for SD_SendBlock
    mmc_sd.o(i.SD_WriteDisk) refers to mmc_sd.o(i.SD_DisSelect) for SD_DisSelect
    mmc_sd.o(i.SD_WriteDisk) refers to mmc_sd.o(.data) for SD_Type
    exti.o(i.EXTI3_IRQHandler) refers to delay.o(i.delay_ms) for delay_ms
    exti.o(i.EXTI3_IRQHandler) refers to exti.o(.data) for key1_pressed
    exti.o(i.EXTI4_IRQHandler) refers to delay.o(i.delay_ms) for delay_ms
    exti.o(i.EXTI4_IRQHandler) refers to exti.o(.data) for key2_pressed
    exti.o(i.EXTI9_5_IRQHandler) refers to delay.o(i.delay_ms) for delay_ms
    exti.o(i.EXTI9_5_IRQHandler) refers to exti.o(.data) for key3_pressed
    exti.o(i.EXTIX_Init) refers to sys.o(i.Ex_NVIC_Config) for Ex_NVIC_Config
    exti.o(i.EXTIX_Init) refers to sys.o(i.MY_NVIC_Init) for MY_NVIC_Init
    power_control.o(i.power_control_pin_init) refers to power_control.o(i.power_control_pin_off) for power_control_pin_off
    malloc.o(i.mem_free) refers to malloc.o(.data) for mallco_dev
    malloc.o(i.mem_free) refers to malloc.o(.constdata) for memsize
    malloc.o(i.mem_init) refers to malloc.o(i.mymemset) for mymemset
    malloc.o(i.mem_init) refers to malloc.o(.constdata) for memtblsize
    malloc.o(i.mem_init) refers to malloc.o(.data) for mallco_dev
    malloc.o(i.mem_malloc) refers to malloc.o(.data) for mallco_dev
    malloc.o(i.mem_malloc) refers to malloc.o(.constdata) for memblksize
    malloc.o(i.mem_perused) refers to malloc.o(.data) for mallco_dev
    malloc.o(i.mem_perused) refers to malloc.o(.constdata) for memtblsize
    malloc.o(i.myfree) refers to malloc.o(i.mem_free) for mem_free
    malloc.o(i.myfree) refers to malloc.o(.data) for mallco_dev
    malloc.o(i.mymalloc) refers to malloc.o(i.mem_malloc) for mem_malloc
    malloc.o(i.mymalloc) refers to malloc.o(.data) for mallco_dev
    malloc.o(i.myrealloc) refers to malloc.o(i.mem_malloc) for mem_malloc
    malloc.o(i.myrealloc) refers to malloc.o(i.mymemcpy) for mymemcpy
    malloc.o(i.myrealloc) refers to malloc.o(i.myfree) for myfree
    malloc.o(i.myrealloc) refers to malloc.o(.data) for mallco_dev
    malloc.o(.data) refers to malloc.o(i.mem_init) for mem_init
    malloc.o(.data) refers to malloc.o(i.mem_perused) for mem_perused
    malloc.o(.data) refers to malloc.o(.bss) for mem1base
    malloc.o(.data) refers to malloc.o(.ARM.__AT_0x68000000) for mem2base
    malloc.o(.data) refers to malloc.o(.ARM.__AT_0x68032000) for mem2mapbase
    delay.o(i.delay_init) refers to delay.o(.data) for fac_us
    delay.o(i.delay_ms) refers to delay.o(.data) for fac_ms
    delay.o(i.delay_us) refers to delay.o(.data) for fac_us
    sys.o(i.MYRCC_DeInit) refers to sys.o(i.MY_NVIC_SetVectorTable) for MY_NVIC_SetVectorTable
    sys.o(i.MY_NVIC_Init) refers to sys.o(i.MY_NVIC_PriorityGroupConfig) for MY_NVIC_PriorityGroupConfig
    sys.o(i.Stm32_Clock_Init) refers to sys.o(i.MYRCC_DeInit) for MYRCC_DeInit
    sys.o(i.Sys_Standby) refers to sys.o(.emb_text) for WFI_SET
    usart.o(i.USART1_IRQHandler) refers (Special) to use_no_semi_2.o(.text) for __use_no_semihosting
    usart.o(i.USART1_IRQHandler) refers to usart.o(.data) for USART_RX_STA
    usart.o(i.USART1_IRQHandler) refers to usart.o(.bss) for USART_RX_BUF
    usart.o(i.USART2_IRQHandler) refers (Special) to use_no_semi_2.o(.text) for __use_no_semihosting
    usart.o(i.USART2_IRQHandler) refers to lower.o(i.lower_uart_rx) for lower_uart_rx
    usart.o(i._sys_exit) refers (Special) to use_no_semi_2.o(.text) for __use_no_semihosting
    usart.o(i.fputc) refers (Special) to use_no_semi_2.o(.text) for __use_no_semihosting
    usart.o(i.uart1_tx) refers (Special) to use_no_semi_2.o(.text) for __use_no_semihosting
    usart.o(i.uart2_tx) refers (Special) to use_no_semi_2.o(.text) for __use_no_semihosting
    usart.o(i.uart_init) refers (Special) to use_no_semi_2.o(.text) for __use_no_semihosting
    usart.o(i.uart_init) refers to fflt_clz.o(x$fpl$ffltu) for __aeabi_ui2f
    usart.o(i.uart_init) refers to fdiv.o(x$fpl$fdiv) for __aeabi_fdiv
    usart.o(i.uart_init) refers to ffixu.o(x$fpl$ffixu) for __aeabi_f2uiz
    usart.o(i.uart_init) refers to faddsub_clz.o(x$fpl$frsb) for __aeabi_frsub
    usart.o(i.uart_init) refers to fmul.o(x$fpl$fmul) for __aeabi_fmul
    usart.o(i.uart_init) refers to sys.o(i.MY_NVIC_Init) for MY_NVIC_Init
    usart.o(.bss) refers (Special) to use_no_semi_2.o(.text) for __use_no_semihosting
    usart.o(.data) refers (Special) to use_no_semi_2.o(.text) for __use_no_semihosting
    hw_config.o(i.Enter_LowPowerMode) refers to usb_pwr.o(.data) for bDeviceState
    hw_config.o(i.Get_SerialNum) refers to usb_desc.o(.data) for MASS_StringSerial
    hw_config.o(i.Leave_LowPowerMode) refers to usb_init.o(.bss) for Device_Info
    hw_config.o(i.Leave_LowPowerMode) refers to usb_pwr.o(.data) for bDeviceState
    hw_config.o(i.MAL_Config) refers to mass_mal.o(i.MAL_Init) for MAL_Init
    hw_config.o(i.USB_Interrupts_Config) refers to sys.o(i.MY_NVIC_Init) for MY_NVIC_Init
    mass_mal.o(i.MAL_Read) refers to mmc_sd.o(i.SD_ReadDisk) for SD_ReadDisk
    mass_mal.o(i.MAL_Read) refers to flash.o(i.SPI_Flash_Read) for SPI_Flash_Read
    mass_mal.o(i.MAL_Write) refers to mmc_sd.o(i.SD_WriteDisk) for SD_WriteDisk
    mass_mal.o(i.MAL_Write) refers to flash.o(i.SPI_Flash_Write) for SPI_Flash_Write
    memory.o(i.Read_Memory) refers to mass_mal.o(i.MAL_Read) for MAL_Read
    memory.o(i.Read_Memory) refers to usb_mem.o(i.UserToPMABufferCopy) for UserToPMABufferCopy
    memory.o(i.Read_Memory) refers to usb_regs.o(i.SetEPTxCount) for SetEPTxCount
    memory.o(i.Read_Memory) refers to usb_regs.o(i.SetEPTxStatus) for SetEPTxStatus
    memory.o(i.Read_Memory) refers to hw_config.o(i.Led_RW_ON) for Led_RW_ON
    memory.o(i.Read_Memory) refers to hw_config.o(i.Led_RW_OFF) for Led_RW_OFF
    memory.o(i.Read_Memory) refers to memory.o(.data) for TransferState
    memory.o(i.Read_Memory) refers to mass_mal.o(.data) for Mass_Block_Size
    memory.o(i.Read_Memory) refers to memory.o(.bss) for Data_Buffer
    memory.o(i.Read_Memory) refers to usb_bot.o(.bss) for CSW
    memory.o(i.Read_Memory) refers to usb_bot.o(.data) for Bot_State
    memory.o(i.Write_Memory) refers to mass_mal.o(i.MAL_Write) for MAL_Write
    memory.o(i.Write_Memory) refers to usb_regs.o(i.SetEPRxStatus) for SetEPRxStatus
    memory.o(i.Write_Memory) refers to hw_config.o(i.Led_RW_ON) for Led_RW_ON
    memory.o(i.Write_Memory) refers to usb_bot.o(i.Set_CSW) for Set_CSW
    memory.o(i.Write_Memory) refers to hw_config.o(i.Led_RW_OFF) for Led_RW_OFF
    memory.o(i.Write_Memory) refers to memory.o(.data) for Counter
    memory.o(i.Write_Memory) refers to mass_mal.o(.data) for Mass_Block_Size
    memory.o(i.Write_Memory) refers to usb_bot.o(.bss) for Bulk_Data_Buff
    memory.o(i.Write_Memory) refers to memory.o(.bss) for Data_Buffer
    memory.o(i.Write_Memory) refers to usb_bot.o(.data) for Data_Len
    msd.o(i.MSD_GetDataResponse) refers to msd.o(i.MSD_ReadByte) for MSD_ReadByte
    msd.o(i.MSD_GetResponse) refers to msd.o(i.MSD_ReadByte) for MSD_ReadByte
    msd.o(i.MSD_GetStatus) refers to msd.o(i.MSD_SendCmd) for MSD_SendCmd
    msd.o(i.MSD_GetStatus) refers to msd.o(i.MSD_ReadByte) for MSD_ReadByte
    msd.o(i.MSD_GetStatus) refers to msd.o(i.MSD_WriteByte) for MSD_WriteByte
    msd.o(i.MSD_GoIdleState) refers to msd.o(i.MSD_SendCmd) for MSD_SendCmd
    msd.o(i.MSD_GoIdleState) refers to msd.o(i.MSD_GetResponse) for MSD_GetResponse
    msd.o(i.MSD_GoIdleState) refers to msd.o(i.MSD_WriteByte) for MSD_WriteByte
    msd.o(i.MSD_GoIdleState) refers to spi.o(i.SPI2_SetSpeed) for SPI2_SetSpeed
    msd.o(i.MSD_Init) refers to spi.o(i.SPI2_Init) for SPI2_Init
    msd.o(i.MSD_Init) refers to spi.o(i.SPI2_SetSpeed) for SPI2_SetSpeed
    msd.o(i.MSD_Init) refers to msd.o(i.MSD_WriteByte) for MSD_WriteByte
    msd.o(i.MSD_Init) refers to msd.o(i.MSD_GoIdleState) for MSD_GoIdleState
    msd.o(i.MSD_ReadBuffer2) refers to msd.o(i.MSD_SendCmd) for MSD_SendCmd
    msd.o(i.MSD_ReadBuffer2) refers to msd.o(i.MSD_GetResponse) for MSD_GetResponse
    msd.o(i.MSD_ReadBuffer2) refers to msd.o(i.MSD_ReadByte) for MSD_ReadByte
    msd.o(i.MSD_ReadBuffer2) refers to msd.o(i.MSD_WriteByte) for MSD_WriteByte
    msd.o(i.MSD_SendCmd) refers to msd.o(i.MSD_WriteByte) for MSD_WriteByte
    msd.o(i.MSD_WriteBuffer1) refers to spi.o(i.SPI2_ReadWriteByte) for SPI2_ReadWriteByte
    msd.o(i.MSD_WriteBuffer1) refers to noretval__2printf.o(.text) for __2printf
    stm32f10x_it.o(i.USB_HP_CAN1_TX_IRQHandler) refers to usb_int.o(i.CTR_HP) for CTR_HP
    stm32f10x_it.o(i.USB_LP_CAN1_RX0_IRQHandler) refers to usb_istr.o(i.USB_Istr) for USB_Istr
    usb_bot.o(i.Bot_Abort) refers to usb_regs.o(i.SetEPTxStatus) for SetEPTxStatus
    usb_bot.o(i.Bot_Abort) refers to usb_regs.o(i.SetEPRxStatus) for SetEPRxStatus
    usb_bot.o(i.CBW_Decode) refers to usb_bot.o(i.Bot_Abort) for Bot_Abort
    usb_bot.o(i.CBW_Decode) refers to usb_scsi.o(i.Set_Scsi_Sense_Data) for Set_Scsi_Sense_Data
    usb_bot.o(i.CBW_Decode) refers to usb_bot.o(i.Set_CSW) for Set_CSW
    usb_bot.o(i.CBW_Decode) refers to usb_scsi.o(i.SCSI_RequestSense_Cmd) for SCSI_RequestSense_Cmd
    usb_bot.o(i.CBW_Decode) refers to usb_scsi.o(i.SCSI_Inquiry_Cmd) for SCSI_Inquiry_Cmd
    usb_bot.o(i.CBW_Decode) refers to usb_scsi.o(i.SCSI_Start_Stop_Unit_Cmd) for SCSI_Start_Stop_Unit_Cmd
    usb_bot.o(i.CBW_Decode) refers to usb_scsi.o(i.SCSI_ModeSense6_Cmd) for SCSI_ModeSense6_Cmd
    usb_bot.o(i.CBW_Decode) refers to usb_scsi.o(i.SCSI_ModeSense10_Cmd) for SCSI_ModeSense10_Cmd
    usb_bot.o(i.CBW_Decode) refers to usb_scsi.o(i.SCSI_ReadFormatCapacity_Cmd) for SCSI_ReadFormatCapacity_Cmd
    usb_bot.o(i.CBW_Decode) refers to usb_scsi.o(i.SCSI_ReadCapacity10_Cmd) for SCSI_ReadCapacity10_Cmd
    usb_bot.o(i.CBW_Decode) refers to usb_scsi.o(i.SCSI_TestUnitReady_Cmd) for SCSI_TestUnitReady_Cmd
    usb_bot.o(i.CBW_Decode) refers to usb_scsi.o(i.SCSI_Read10_Cmd) for SCSI_Read10_Cmd
    usb_bot.o(i.CBW_Decode) refers to usb_scsi.o(i.SCSI_Write10_Cmd) for SCSI_Write10_Cmd
    usb_bot.o(i.CBW_Decode) refers to usb_scsi.o(i.SCSI_Verify10_Cmd) for SCSI_Verify10_Cmd
    usb_bot.o(i.CBW_Decode) refers to usb_scsi.o(i.SCSI_Format_Cmd) for SCSI_Format_Cmd
    usb_bot.o(i.CBW_Decode) refers to usb_scsi.o(i.SCSI_Invalid_Cmd) for SCSI_Invalid_Cmd
    usb_bot.o(i.CBW_Decode) refers to usb_bot.o(.bss) for Bulk_Data_Buff
    usb_bot.o(i.CBW_Decode) refers to usb_bot.o(.data) for Data_Len
    usb_bot.o(i.CBW_Decode) refers to usb_prop.o(.data) for Max_Lun
    usb_bot.o(i.Mass_Storage_In) refers to usb_regs.o(i.SetEPRxStatus) for SetEPRxStatus
    usb_bot.o(i.Mass_Storage_In) refers to usb_scsi.o(i.SCSI_Read10_Cmd) for SCSI_Read10_Cmd
    usb_bot.o(i.Mass_Storage_In) refers to usb_bot.o(i.Set_CSW) for Set_CSW
    usb_bot.o(i.Mass_Storage_In) refers to memory.o(.data) for USB_STATUS_REG
    usb_bot.o(i.Mass_Storage_In) refers to usb_bot.o(.data) for Bot_State
    usb_bot.o(i.Mass_Storage_In) refers to usb_bot.o(.bss) for CBW
    usb_bot.o(i.Mass_Storage_Out) refers to usb_regs.o(i.GetEPRxCount) for GetEPRxCount
    usb_bot.o(i.Mass_Storage_Out) refers to usb_mem.o(i.PMAToUserBufferCopy) for PMAToUserBufferCopy
    usb_bot.o(i.Mass_Storage_Out) refers to usb_bot.o(i.CBW_Decode) for CBW_Decode
    usb_bot.o(i.Mass_Storage_Out) refers to usb_scsi.o(i.SCSI_Write10_Cmd) for SCSI_Write10_Cmd
    usb_bot.o(i.Mass_Storage_Out) refers to usb_bot.o(i.Bot_Abort) for Bot_Abort
    usb_bot.o(i.Mass_Storage_Out) refers to usb_scsi.o(i.Set_Scsi_Sense_Data) for Set_Scsi_Sense_Data
    usb_bot.o(i.Mass_Storage_Out) refers to usb_bot.o(i.Set_CSW) for Set_CSW
    usb_bot.o(i.Mass_Storage_Out) refers to memory.o(.data) for USB_STATUS_REG
    usb_bot.o(i.Mass_Storage_Out) refers to usb_bot.o(.bss) for CBW
    usb_bot.o(i.Mass_Storage_Out) refers to usb_bot.o(.data) for Data_Len
    usb_bot.o(i.Set_CSW) refers to usb_mem.o(i.UserToPMABufferCopy) for UserToPMABufferCopy
    usb_bot.o(i.Set_CSW) refers to usb_regs.o(i.SetEPTxCount) for SetEPTxCount
    usb_bot.o(i.Set_CSW) refers to usb_regs.o(i.SetEPTxStatus) for SetEPTxStatus
    usb_bot.o(i.Set_CSW) refers to usb_bot.o(.bss) for CSW
    usb_bot.o(i.Set_CSW) refers to usb_bot.o(.data) for Bot_State
    usb_bot.o(i.Transfer_Data_Request) refers to usb_mem.o(i.UserToPMABufferCopy) for UserToPMABufferCopy
    usb_bot.o(i.Transfer_Data_Request) refers to usb_regs.o(i.SetEPTxCount) for SetEPTxCount
    usb_bot.o(i.Transfer_Data_Request) refers to usb_regs.o(i.SetEPTxStatus) for SetEPTxStatus
    usb_bot.o(i.Transfer_Data_Request) refers to usb_bot.o(.data) for Bot_State
    usb_bot.o(i.Transfer_Data_Request) refers to usb_bot.o(.bss) for CSW
    usb_endp.o(i.EP1_IN_Callback) refers to usb_bot.o(i.Mass_Storage_In) for Mass_Storage_In
    usb_endp.o(i.EP2_OUT_Callback) refers to usb_bot.o(i.Mass_Storage_Out) for Mass_Storage_Out
    usb_istr.o(i.USB_Istr) refers to usb_int.o(i.CTR_LP) for CTR_LP
    usb_istr.o(i.USB_Istr) refers to usb_istr.o(.data) for wIstr
    usb_istr.o(i.USB_Istr) refers to usb_init.o(.data) for wInterrupt_Mask
    usb_istr.o(i.USB_Istr) refers to usb_prop.o(.data) for Device_Property
    usb_istr.o(.data) refers to usb_endp.o(i.EP1_IN_Callback) for EP1_IN_Callback
    usb_istr.o(.data) refers to usb_core.o(i.NOP_Process) for NOP_Process
    usb_istr.o(.data) refers to usb_endp.o(i.EP2_OUT_Callback) for EP2_OUT_Callback
    usb_prop.o(i.Get_Max_Lun) refers to usb_init.o(.data) for pInformation
    usb_prop.o(i.Get_Max_Lun) refers to usb_prop.o(.data) for Max_Lun
    usb_prop.o(i.MASS_Data_Setup) refers to usb_init.o(.data) for pInformation
    usb_prop.o(i.MASS_Data_Setup) refers to usb_prop.o(i.Get_Max_Lun) for Get_Max_Lun
    usb_prop.o(i.MASS_GetConfigDescriptor) refers to usb_core.o(i.Standard_GetDescriptorData) for Standard_GetDescriptorData
    usb_prop.o(i.MASS_GetConfigDescriptor) refers to usb_prop.o(.data) for Config_Descriptor
    usb_prop.o(i.MASS_GetDeviceDescriptor) refers to usb_core.o(i.Standard_GetDescriptorData) for Standard_GetDescriptorData
    usb_prop.o(i.MASS_GetDeviceDescriptor) refers to usb_prop.o(.data) for Device_Descriptor
    usb_prop.o(i.MASS_GetStringDescriptor) refers to usb_core.o(i.Standard_GetDescriptorData) for Standard_GetDescriptorData
    usb_prop.o(i.MASS_GetStringDescriptor) refers to usb_init.o(.data) for pInformation
    usb_prop.o(i.MASS_GetStringDescriptor) refers to usb_prop.o(.data) for String_Descriptor
    usb_prop.o(i.MASS_NoData_Setup) refers to usb_regs.o(i.ClearDTOG_TX) for ClearDTOG_TX
    usb_prop.o(i.MASS_NoData_Setup) refers to usb_regs.o(i.ClearDTOG_RX) for ClearDTOG_RX
    usb_prop.o(i.MASS_NoData_Setup) refers to usb_init.o(.data) for pInformation
    usb_prop.o(i.MASS_NoData_Setup) refers to usb_bot.o(.bss) for CBW
    usb_prop.o(i.MASS_NoData_Setup) refers to usb_bot.o(.data) for Bot_State
    usb_prop.o(i.MASS_Reset) refers to usb_regs.o(i.SetBTABLE) for SetBTABLE
    usb_prop.o(i.MASS_Reset) refers to usb_regs.o(i.SetEPType) for SetEPType
    usb_prop.o(i.MASS_Reset) refers to usb_regs.o(i.SetEPTxStatus) for SetEPTxStatus
    usb_prop.o(i.MASS_Reset) refers to usb_regs.o(i.SetEPRxAddr) for SetEPRxAddr
    usb_prop.o(i.MASS_Reset) refers to usb_regs.o(i.SetEPRxCount) for SetEPRxCount
    usb_prop.o(i.MASS_Reset) refers to usb_regs.o(i.SetEPTxAddr) for SetEPTxAddr
    usb_prop.o(i.MASS_Reset) refers to usb_regs.o(i.Clear_Status_Out) for Clear_Status_Out
    usb_prop.o(i.MASS_Reset) refers to usb_regs.o(i.SetEPRxValid) for SetEPRxValid
    usb_prop.o(i.MASS_Reset) refers to usb_regs.o(i.SetEPRxStatus) for SetEPRxStatus
    usb_prop.o(i.MASS_Reset) refers to usb_core.o(i.SetDeviceAddress) for SetDeviceAddress
    usb_prop.o(i.MASS_Reset) refers to hw_config.o(i.USB_NotConfigured_LED) for USB_NotConfigured_LED
    usb_prop.o(i.MASS_Reset) refers to usb_init.o(.bss) for Device_Info
    usb_prop.o(i.MASS_Reset) refers to usb_desc.o(.constdata) for MASS_ConfigDescriptor
    usb_prop.o(i.MASS_Reset) refers to usb_init.o(.data) for pInformation
    usb_prop.o(i.MASS_Reset) refers to usb_prop.o(.data) for Device_Property
    usb_prop.o(i.MASS_Reset) refers to usb_pwr.o(.data) for bDeviceState
    usb_prop.o(i.MASS_Reset) refers to usb_bot.o(.bss) for CBW
    usb_prop.o(i.MASS_Reset) refers to usb_bot.o(.data) for Bot_State
    usb_prop.o(i.MASS_init) refers to hw_config.o(i.Get_SerialNum) for Get_SerialNum
    usb_prop.o(i.MASS_init) refers to usb_pwr.o(i.PowerOn) for PowerOn
    usb_prop.o(i.MASS_init) refers to usb_init.o(.data) for pInformation
    usb_prop.o(i.MASS_init) refers to usb_pwr.o(.data) for bDeviceState
    usb_prop.o(i.Mass_Storage_ClearFeature) refers to usb_bot.o(i.Bot_Abort) for Bot_Abort
    usb_prop.o(i.Mass_Storage_ClearFeature) refers to usb_bot.o(.bss) for CBW
    usb_prop.o(i.Mass_Storage_SetConfiguration) refers to usb_regs.o(i.ClearDTOG_TX) for ClearDTOG_TX
    usb_prop.o(i.Mass_Storage_SetConfiguration) refers to usb_regs.o(i.ClearDTOG_RX) for ClearDTOG_RX
    usb_prop.o(i.Mass_Storage_SetConfiguration) refers to usb_init.o(.data) for pInformation
    usb_prop.o(i.Mass_Storage_SetConfiguration) refers to usb_pwr.o(.data) for bDeviceState
    usb_prop.o(i.Mass_Storage_SetConfiguration) refers to usb_bot.o(.data) for Bot_State
    usb_prop.o(i.Mass_Storage_SetDeviceAddress) refers to usb_pwr.o(.data) for bDeviceState
    usb_prop.o(.data) refers to usb_prop.o(i.MASS_init) for MASS_init
    usb_prop.o(.data) refers to usb_prop.o(i.MASS_Reset) for MASS_Reset
    usb_prop.o(.data) refers to usb_prop.o(i.MASS_Status_In) for MASS_Status_In
    usb_prop.o(.data) refers to usb_prop.o(i.MASS_Status_Out) for MASS_Status_Out
    usb_prop.o(.data) refers to usb_prop.o(i.MASS_Data_Setup) for MASS_Data_Setup
    usb_prop.o(.data) refers to usb_prop.o(i.MASS_NoData_Setup) for MASS_NoData_Setup
    usb_prop.o(.data) refers to usb_prop.o(i.MASS_Get_Interface_Setting) for MASS_Get_Interface_Setting
    usb_prop.o(.data) refers to usb_prop.o(i.MASS_GetDeviceDescriptor) for MASS_GetDeviceDescriptor
    usb_prop.o(.data) refers to usb_prop.o(i.MASS_GetConfigDescriptor) for MASS_GetConfigDescriptor
    usb_prop.o(.data) refers to usb_prop.o(i.MASS_GetStringDescriptor) for MASS_GetStringDescriptor
    usb_prop.o(.data) refers to usb_core.o(i.NOP_Process) for NOP_Process
    usb_prop.o(.data) refers to usb_prop.o(i.Mass_Storage_SetConfiguration) for Mass_Storage_SetConfiguration
    usb_prop.o(.data) refers to usb_prop.o(i.Mass_Storage_ClearFeature) for Mass_Storage_ClearFeature
    usb_prop.o(.data) refers to usb_prop.o(i.Mass_Storage_SetDeviceAddress) for Mass_Storage_SetDeviceAddress
    usb_prop.o(.data) refers to usb_desc.o(.constdata) for MASS_DeviceDescriptor
    usb_prop.o(.data) refers to usb_desc.o(.data) for MASS_StringSerial
    usb_pwr.o(i.PowerOff) refers to hw_config.o(i.USB_Cable_Config) for USB_Cable_Config
    usb_pwr.o(i.PowerOn) refers to hw_config.o(i.USB_Cable_Config) for USB_Cable_Config
    usb_pwr.o(i.PowerOn) refers to usb_init.o(.data) for wInterrupt_Mask
    usb_pwr.o(i.Resume) refers to usb_pwr.o(i.Resume_Init) for Resume_Init
    usb_pwr.o(i.Resume) refers to usb_pwr.o(.data) for ResumeS
    usb_pwr.o(i.Resume_Init) refers to hw_config.o(i.Leave_LowPowerMode) for Leave_LowPowerMode
    usb_pwr.o(i.Suspend) refers to hw_config.o(i.Enter_LowPowerMode) for Enter_LowPowerMode
    usb_scsi.o(i.SCSI_Address_Management) refers to usb_bot.o(i.Bot_Abort) for Bot_Abort
    usb_scsi.o(i.SCSI_Address_Management) refers to usb_scsi.o(i.Set_Scsi_Sense_Data) for Set_Scsi_Sense_Data
    usb_scsi.o(i.SCSI_Address_Management) refers to usb_bot.o(i.Set_CSW) for Set_CSW
    usb_scsi.o(i.SCSI_Address_Management) refers to mass_mal.o(.data) for Mass_Block_Count
    usb_scsi.o(i.SCSI_Address_Management) refers to usb_bot.o(.bss) for CBW
    usb_scsi.o(i.SCSI_Format_Cmd) refers to mass_mal.o(i.MAL_GetStatus) for MAL_GetStatus
    usb_scsi.o(i.SCSI_Format_Cmd) refers to usb_scsi.o(i.Set_Scsi_Sense_Data) for Set_Scsi_Sense_Data
    usb_scsi.o(i.SCSI_Format_Cmd) refers to usb_bot.o(i.Set_CSW) for Set_CSW
    usb_scsi.o(i.SCSI_Format_Cmd) refers to usb_bot.o(i.Bot_Abort) for Bot_Abort
    usb_scsi.o(i.SCSI_Format_Cmd) refers to usb_bot.o(.bss) for CBW
    usb_scsi.o(i.SCSI_Inquiry_Cmd) refers to usb_bot.o(i.Transfer_Data_Request) for Transfer_Data_Request
    usb_scsi.o(i.SCSI_Inquiry_Cmd) refers to usb_bot.o(.bss) for CBW
    usb_scsi.o(i.SCSI_Inquiry_Cmd) refers to scsi_data.o(.data) for Page00_Inquiry_Data
    usb_scsi.o(i.SCSI_Invalid_Cmd) refers to usb_bot.o(i.Bot_Abort) for Bot_Abort
    usb_scsi.o(i.SCSI_Invalid_Cmd) refers to usb_scsi.o(i.Set_Scsi_Sense_Data) for Set_Scsi_Sense_Data
    usb_scsi.o(i.SCSI_Invalid_Cmd) refers to usb_bot.o(i.Set_CSW) for Set_CSW
    usb_scsi.o(i.SCSI_Invalid_Cmd) refers to usb_bot.o(.bss) for CBW
    usb_scsi.o(i.SCSI_ModeSense10_Cmd) refers to usb_bot.o(i.Transfer_Data_Request) for Transfer_Data_Request
    usb_scsi.o(i.SCSI_ModeSense10_Cmd) refers to scsi_data.o(.data) for Mode_Sense10_data
    usb_scsi.o(i.SCSI_ModeSense6_Cmd) refers to usb_bot.o(i.Transfer_Data_Request) for Transfer_Data_Request
    usb_scsi.o(i.SCSI_ModeSense6_Cmd) refers to scsi_data.o(.data) for Mode_Sense6_data
    usb_scsi.o(i.SCSI_Read10_Cmd) refers to usb_scsi.o(i.SCSI_Address_Management) for SCSI_Address_Management
    usb_scsi.o(i.SCSI_Read10_Cmd) refers to memory.o(i.Read_Memory) for Read_Memory
    usb_scsi.o(i.SCSI_Read10_Cmd) refers to usb_bot.o(i.Bot_Abort) for Bot_Abort
    usb_scsi.o(i.SCSI_Read10_Cmd) refers to usb_scsi.o(i.Set_Scsi_Sense_Data) for Set_Scsi_Sense_Data
    usb_scsi.o(i.SCSI_Read10_Cmd) refers to usb_bot.o(i.Set_CSW) for Set_CSW
    usb_scsi.o(i.SCSI_Read10_Cmd) refers to usb_bot.o(.data) for Bot_State
    usb_scsi.o(i.SCSI_Read10_Cmd) refers to usb_bot.o(.bss) for CBW
    usb_scsi.o(i.SCSI_ReadCapacity10_Cmd) refers to mass_mal.o(i.MAL_GetStatus) for MAL_GetStatus
    usb_scsi.o(i.SCSI_ReadCapacity10_Cmd) refers to usb_scsi.o(i.Set_Scsi_Sense_Data) for Set_Scsi_Sense_Data
    usb_scsi.o(i.SCSI_ReadCapacity10_Cmd) refers to usb_bot.o(i.Set_CSW) for Set_CSW
    usb_scsi.o(i.SCSI_ReadCapacity10_Cmd) refers to usb_bot.o(i.Bot_Abort) for Bot_Abort
    usb_scsi.o(i.SCSI_ReadCapacity10_Cmd) refers to usb_bot.o(i.Transfer_Data_Request) for Transfer_Data_Request
    usb_scsi.o(i.SCSI_ReadCapacity10_Cmd) refers to usb_bot.o(.bss) for CBW
    usb_scsi.o(i.SCSI_ReadCapacity10_Cmd) refers to mass_mal.o(.data) for Mass_Block_Count
    usb_scsi.o(i.SCSI_ReadCapacity10_Cmd) refers to scsi_data.o(.data) for ReadCapacity10_Data
    usb_scsi.o(i.SCSI_ReadFormatCapacity_Cmd) refers to mass_mal.o(i.MAL_GetStatus) for MAL_GetStatus
    usb_scsi.o(i.SCSI_ReadFormatCapacity_Cmd) refers to usb_scsi.o(i.Set_Scsi_Sense_Data) for Set_Scsi_Sense_Data
    usb_scsi.o(i.SCSI_ReadFormatCapacity_Cmd) refers to usb_bot.o(i.Set_CSW) for Set_CSW
    usb_scsi.o(i.SCSI_ReadFormatCapacity_Cmd) refers to usb_bot.o(i.Bot_Abort) for Bot_Abort
    usb_scsi.o(i.SCSI_ReadFormatCapacity_Cmd) refers to usb_bot.o(i.Transfer_Data_Request) for Transfer_Data_Request
    usb_scsi.o(i.SCSI_ReadFormatCapacity_Cmd) refers to usb_bot.o(.bss) for CBW
    usb_scsi.o(i.SCSI_ReadFormatCapacity_Cmd) refers to mass_mal.o(.data) for Mass_Block_Count
    usb_scsi.o(i.SCSI_ReadFormatCapacity_Cmd) refers to scsi_data.o(.data) for ReadFormatCapacity_Data
    usb_scsi.o(i.SCSI_RequestSense_Cmd) refers to usb_bot.o(i.Transfer_Data_Request) for Transfer_Data_Request
    usb_scsi.o(i.SCSI_RequestSense_Cmd) refers to usb_bot.o(.bss) for CBW
    usb_scsi.o(i.SCSI_RequestSense_Cmd) refers to scsi_data.o(.data) for Scsi_Sense_Data
    usb_scsi.o(i.SCSI_Start_Stop_Unit_Cmd) refers to usb_bot.o(i.Set_CSW) for Set_CSW
    usb_scsi.o(i.SCSI_TestUnitReady_Cmd) refers to mass_mal.o(i.MAL_GetStatus) for MAL_GetStatus
    usb_scsi.o(i.SCSI_TestUnitReady_Cmd) refers to usb_scsi.o(i.Set_Scsi_Sense_Data) for Set_Scsi_Sense_Data
    usb_scsi.o(i.SCSI_TestUnitReady_Cmd) refers to usb_bot.o(i.Set_CSW) for Set_CSW
    usb_scsi.o(i.SCSI_TestUnitReady_Cmd) refers to usb_bot.o(i.Bot_Abort) for Bot_Abort
    usb_scsi.o(i.SCSI_TestUnitReady_Cmd) refers to usb_bot.o(.bss) for CBW
    usb_scsi.o(i.SCSI_Valid_Cmd) refers to usb_bot.o(i.Bot_Abort) for Bot_Abort
    usb_scsi.o(i.SCSI_Valid_Cmd) refers to usb_scsi.o(i.Set_Scsi_Sense_Data) for Set_Scsi_Sense_Data
    usb_scsi.o(i.SCSI_Valid_Cmd) refers to usb_bot.o(i.Set_CSW) for Set_CSW
    usb_scsi.o(i.SCSI_Valid_Cmd) refers to usb_bot.o(.bss) for CBW
    usb_scsi.o(i.SCSI_Verify10_Cmd) refers to usb_bot.o(i.Set_CSW) for Set_CSW
    usb_scsi.o(i.SCSI_Verify10_Cmd) refers to usb_bot.o(i.Bot_Abort) for Bot_Abort
    usb_scsi.o(i.SCSI_Verify10_Cmd) refers to usb_scsi.o(i.Set_Scsi_Sense_Data) for Set_Scsi_Sense_Data
    usb_scsi.o(i.SCSI_Verify10_Cmd) refers to usb_bot.o(.bss) for CBW
    usb_scsi.o(i.SCSI_Write10_Cmd) refers to usb_scsi.o(i.SCSI_Address_Management) for SCSI_Address_Management
    usb_scsi.o(i.SCSI_Write10_Cmd) refers to usb_regs.o(i.SetEPRxStatus) for SetEPRxStatus
    usb_scsi.o(i.SCSI_Write10_Cmd) refers to usb_bot.o(i.Bot_Abort) for Bot_Abort
    usb_scsi.o(i.SCSI_Write10_Cmd) refers to usb_scsi.o(i.Set_Scsi_Sense_Data) for Set_Scsi_Sense_Data
    usb_scsi.o(i.SCSI_Write10_Cmd) refers to usb_bot.o(i.Set_CSW) for Set_CSW
    usb_scsi.o(i.SCSI_Write10_Cmd) refers to memory.o(i.Write_Memory) for Write_Memory
    usb_scsi.o(i.SCSI_Write10_Cmd) refers to usb_bot.o(.data) for Bot_State
    usb_scsi.o(i.SCSI_Write10_Cmd) refers to usb_bot.o(.bss) for CBW
    usb_scsi.o(i.Set_Scsi_Sense_Data) refers to scsi_data.o(.data) for Scsi_Sense_Data
    usb_core.o(i.DataStageIn) refers to usb_regs.o(i.GetEPTxAddr) for GetEPTxAddr
    usb_core.o(i.DataStageIn) refers to usb_mem.o(i.UserToPMABufferCopy) for UserToPMABufferCopy
    usb_core.o(i.DataStageIn) refers to usb_regs.o(i.SetEPTxCount) for SetEPTxCount
    usb_core.o(i.DataStageIn) refers to usb_init.o(.data) for pInformation
    usb_core.o(i.DataStageIn) refers to usb_core.o(.data) for Data_Mul_MaxPacketSize
    usb_core.o(i.DataStageIn) refers to usb_int.o(.data) for SaveTState
    usb_core.o(i.DataStageOut) refers to usb_regs.o(i.GetEPRxAddr) for GetEPRxAddr
    usb_core.o(i.DataStageOut) refers to usb_mem.o(i.PMAToUserBufferCopy) for PMAToUserBufferCopy
    usb_core.o(i.DataStageOut) refers to usb_regs.o(i.SetEPTxCount) for SetEPTxCount
    usb_core.o(i.DataStageOut) refers to usb_init.o(.data) for pInformation
    usb_core.o(i.DataStageOut) refers to usb_int.o(.data) for SaveRState
    usb_core.o(i.Data_Setup0) refers to usb_core.o(i.DataStageIn) for DataStageIn
    usb_core.o(i.Data_Setup0) refers to usb_init.o(.data) for pInformation
    usb_core.o(i.Data_Setup0) refers to usb_core.o(i.Standard_GetStatus) for Standard_GetStatus
    usb_core.o(i.Data_Setup0) refers to usb_prop.o(.data) for Device_Table
    usb_core.o(i.Data_Setup0) refers to usb_core.o(i.Standard_GetConfiguration) for Standard_GetConfiguration
    usb_core.o(i.Data_Setup0) refers to usb_core.o(i.Standard_GetInterface) for Standard_GetInterface
    usb_core.o(i.Data_Setup0) refers to usb_core.o(.data) for Data_Mul_MaxPacketSize
    usb_core.o(i.Data_Setup0) refers to usb_int.o(.data) for SaveRState
    usb_core.o(i.In0_Process) refers to usb_core.o(i.DataStageIn) for DataStageIn
    usb_core.o(i.In0_Process) refers to usb_core.o(i.SetDeviceAddress) for SetDeviceAddress
    usb_core.o(i.In0_Process) refers to usb_core.o(i.Post0_Process) for Post0_Process
    usb_core.o(i.In0_Process) refers to usb_init.o(.data) for pInformation
    usb_core.o(i.NoData_Setup0) refers to usb_core.o(i.Standard_SetConfiguration) for Standard_SetConfiguration
    usb_core.o(i.NoData_Setup0) refers to usb_core.o(i.Standard_SetDeviceFeature) for Standard_SetDeviceFeature
    usb_core.o(i.NoData_Setup0) refers to usb_core.o(i.Standard_ClearFeature) for Standard_ClearFeature
    usb_core.o(i.NoData_Setup0) refers to usb_core.o(i.Standard_SetInterface) for Standard_SetInterface
    usb_core.o(i.NoData_Setup0) refers to usb_core.o(i.Standard_SetEndPointFeature) for Standard_SetEndPointFeature
    usb_core.o(i.NoData_Setup0) refers to usb_init.o(.data) for pInformation
    usb_core.o(i.NoData_Setup0) refers to usb_int.o(.data) for SaveTState
    usb_core.o(i.Out0_Process) refers to usb_core.o(i.DataStageOut) for DataStageOut
    usb_core.o(i.Out0_Process) refers to usb_core.o(i.Post0_Process) for Post0_Process
    usb_core.o(i.Out0_Process) refers to usb_init.o(.data) for pInformation
    usb_core.o(i.Post0_Process) refers to usb_regs.o(i.SetEPRxCount) for SetEPRxCount
    usb_core.o(i.Post0_Process) refers to usb_prop.o(.data) for Device_Property
    usb_core.o(i.Post0_Process) refers to usb_init.o(.data) for pInformation
    usb_core.o(i.Post0_Process) refers to usb_int.o(.data) for SaveRState
    usb_core.o(i.SetDeviceAddress) refers to usb_prop.o(.data) for Device_Table
    usb_core.o(i.Setup0_Process) refers to usb_regs.o(i.ByteSwap) for ByteSwap
    usb_core.o(i.Setup0_Process) refers to usb_core.o(i.NoData_Setup0) for NoData_Setup0
    usb_core.o(i.Setup0_Process) refers to usb_core.o(i.Data_Setup0) for Data_Setup0
    usb_core.o(i.Setup0_Process) refers to usb_core.o(i.Post0_Process) for Post0_Process
    usb_core.o(i.Setup0_Process) refers to usb_init.o(.data) for pInformation
    usb_core.o(i.Standard_ClearFeature) refers to usb_regs.o(i.ClearDTOG_TX) for ClearDTOG_TX
    usb_core.o(i.Standard_ClearFeature) refers to usb_regs.o(i.SetEPTxStatus) for SetEPTxStatus
    usb_core.o(i.Standard_ClearFeature) refers to usb_regs.o(i.SetEPRxCount) for SetEPRxCount
    usb_core.o(i.Standard_ClearFeature) refers to usb_regs.o(i.ClearDTOG_RX) for ClearDTOG_RX
    usb_core.o(i.Standard_ClearFeature) refers to usb_init.o(.data) for pInformation
    usb_core.o(i.Standard_ClearFeature) refers to usb_prop.o(.data) for Device_Table
    usb_core.o(i.Standard_GetConfiguration) refers to usb_init.o(.data) for pInformation
    usb_core.o(i.Standard_GetDescriptorData) refers to usb_init.o(.data) for pInformation
    usb_core.o(i.Standard_GetInterface) refers to usb_init.o(.data) for pInformation
    usb_core.o(i.Standard_GetStatus) refers to usb_init.o(.data) for pInformation
    usb_core.o(i.Standard_GetStatus) refers to usb_core.o(.data) for StatusInfo
    usb_core.o(i.Standard_SetConfiguration) refers to usb_init.o(.data) for pInformation
    usb_core.o(i.Standard_SetConfiguration) refers to usb_prop.o(.data) for Device_Table
    usb_core.o(i.Standard_SetDeviceFeature) refers to usb_init.o(.data) for pInformation
    usb_core.o(i.Standard_SetEndPointFeature) refers to usb_init.o(.data) for pInformation
    usb_core.o(i.Standard_SetEndPointFeature) refers to usb_prop.o(.data) for Device_Table
    usb_core.o(i.Standard_SetInterface) refers to usb_init.o(.data) for pInformation
    usb_init.o(i.USB_Init) refers to usb_init.o(.bss) for Device_Info
    usb_init.o(i.USB_Init) refers to usb_init.o(.data) for pInformation
    usb_init.o(i.USB_Init) refers to usb_prop.o(.data) for Device_Property
    usb_int.o(i.CTR_HP) refers to usb_istr.o(.data) for wIstr
    usb_int.o(i.CTR_HP) refers to usb_init.o(.data) for EPindex
    usb_int.o(i.CTR_LP) refers to usb_core.o(i.In0_Process) for In0_Process
    usb_int.o(i.CTR_LP) refers to usb_core.o(i.Setup0_Process) for Setup0_Process
    usb_int.o(i.CTR_LP) refers to usb_core.o(i.Out0_Process) for Out0_Process
    usb_int.o(i.CTR_LP) refers to usb_istr.o(.data) for wIstr
    usb_int.o(i.CTR_LP) refers to usb_init.o(.data) for EPindex
    usb_int.o(i.CTR_LP) refers to usb_int.o(.data) for SaveRState
    usb_regs.o(i.SetDouBleBuffEPStall) refers to usb_regs.o(i.GetENDPOINT) for GetENDPOINT
    main.o(i.main) refers to sys.o(i.Stm32_Clock_Init) for Stm32_Clock_Init
    main.o(i.main) refers to delay.o(i.delay_init) for delay_init
    main.o(i.main) refers to usart.o(i.uart_init) for uart_init
    main.o(i.main) refers to led.o(i.LED_Init) for LED_Init
    main.o(i.main) refers to exti.o(i.EXTIX_Init) for EXTIX_Init
    main.o(i.main) refers to power_control.o(i.power_control_pin_init) for power_control_pin_init
    main.o(i.main) refers to flash.o(i.SPI_Flash_Init) for SPI_Flash_Init
    main.o(i.main) refers to mmc_sd.o(i.SD_Initialize) for SD_Initialize
    main.o(i.main) refers to mmc_sd.o(i.SD_GetSectorCount) for SD_GetSectorCount
    main.o(i.main) refers to llsdiv.o(.text) for __aeabi_ldivmod
    main.o(i.main) refers to delay.o(i.delay_ms) for delay_ms
    main.o(i.main) refers to malloc.o(i.mem_init) for mem_init
    main.o(i.main) refers to exfuns.o(i.exfuns_init) for exfuns_init
    main.o(i.main) refers to ff.o(i.f_mount) for f_mount
    main.o(i.main) refers to main.o(i.usb_port_set) for usb_port_set
    main.o(i.main) refers to hw_config.o(i.USB_Interrupts_Config) for USB_Interrupts_Config
    main.o(i.main) refers to hw_config.o(i.Set_USBClock) for Set_USBClock
    main.o(i.main) refers to usb_init.o(i.USB_Init) for USB_Init
    main.o(i.main) refers to ff.o(i.f_opendir) for f_opendir
    main.o(i.main) refers to malloc.o(i.mymalloc) for mymalloc
    main.o(i.main) refers to ff.o(i.f_readdir) for f_readdir
    main.o(i.main) refers to ff.o(i.f_open) for f_open
    main.o(i.main) refers to ff.o(i.f_read) for f_read
    main.o(i.main) refers to ff.o(i.f_close) for f_close
    main.o(i.main) refers to malloc.o(i.myfree) for myfree
    main.o(i.main) refers to lower.o(i.lower_get_state) for lower_get_state
    main.o(i.main) refers to lower.o(i.lower_set_state) for lower_set_state
    main.o(i.main) refers to power_control.o(i.power_control_pin_off) for power_control_pin_off
    main.o(i.main) refers to power_control.o(i.power_control_pin_on) for power_control_pin_on
    main.o(i.main) refers to lower.o(i.lower_uart_reset) for lower_uart_reset
    main.o(i.main) refers to lower.o(i.low_fix_trans_bug) for low_fix_trans_bug
    main.o(i.main) refers to ff.o(i.f_write) for f_write
    main.o(i.main) refers to mass_mal.o(.bss) for Mass_Memory_Size
    main.o(i.main) refers to mass_mal.o(.data) for Mass_Block_Size
    main.o(i.main) refers to flash.o(.data) for SPI_FLASH_TYPE
    main.o(i.main) refers to exfuns.o(.data) for fs
    main.o(i.main) refers to main.o(.bss) for file_info
    main.o(i.main) refers to main.o(.data) for f_hid_bin
    main.o(i.main) refers to exti.o(.data) for key1_pressed
    main.o(i.main) refers to memory.o(.data) for USB_STATUS_REG
    main.o(i.main) refers to usb_pwr.o(.data) for bDeviceState
    diskio.o(i.disk_initialize) refers to mmc_sd.o(i.SD_Initialize) for SD_Initialize
    diskio.o(i.disk_initialize) refers to mmc_sd.o(i.SD_SPI_SpeedLow) for SD_SPI_SpeedLow
    diskio.o(i.disk_initialize) refers to mmc_sd.o(i.SD_SPI_ReadWriteByte) for SD_SPI_ReadWriteByte
    diskio.o(i.disk_initialize) refers to mmc_sd.o(i.SD_SPI_SpeedHigh) for SD_SPI_SpeedHigh
    diskio.o(i.disk_initialize) refers to flash.o(i.SPI_Flash_Init) for SPI_Flash_Init
    diskio.o(i.disk_initialize) refers to flash.o(.data) for SPI_FLASH_TYPE
    diskio.o(i.disk_initialize) refers to diskio.o(.data) for FLASH_SECTOR_COUNT
    diskio.o(i.disk_ioctl) refers to mmc_sd.o(i.SD_WaitReady) for SD_WaitReady
    diskio.o(i.disk_ioctl) refers to mmc_sd.o(i.SD_GetSectorCount) for SD_GetSectorCount
    diskio.o(i.disk_ioctl) refers to diskio.o(.data) for FLASH_SECTOR_COUNT
    diskio.o(i.disk_read) refers to mmc_sd.o(i.SD_ReadDisk) for SD_ReadDisk
    diskio.o(i.disk_read) refers to mmc_sd.o(i.SD_SPI_SpeedLow) for SD_SPI_SpeedLow
    diskio.o(i.disk_read) refers to mmc_sd.o(i.SD_SPI_ReadWriteByte) for SD_SPI_ReadWriteByte
    diskio.o(i.disk_read) refers to mmc_sd.o(i.SD_SPI_SpeedHigh) for SD_SPI_SpeedHigh
    diskio.o(i.disk_read) refers to flash.o(i.SPI_Flash_Read) for SPI_Flash_Read
    diskio.o(i.disk_write) refers to mmc_sd.o(i.SD_WriteDisk) for SD_WriteDisk
    diskio.o(i.disk_write) refers to flash.o(i.SPI_Flash_Write) for SPI_Flash_Write
    diskio.o(i.ff_memalloc) refers to malloc.o(i.mymalloc) for mymalloc
    diskio.o(i.ff_memfree) refers to malloc.o(i.myfree) for myfree
    exfuns.o(i.exf_getfree) refers to ff.o(i.f_getfree) for f_getfree
    exfuns.o(i.exfuns_init) refers to malloc.o(i.mymalloc) for mymalloc
    exfuns.o(i.exfuns_init) refers to exfuns.o(.data) for fs
    exfuns.o(i.f_typetell) refers to strcpy.o(.text) for strcpy
    exfuns.o(i.f_typetell) refers to exfuns.o(i.char_upper) for char_upper
    exfuns.o(i.f_typetell) refers to strcmpv7m.o(.text) for strcmp
    exfuns.o(i.f_typetell) refers to exfuns.o(.data) for FILE_TYPE_TBL
    exfuns.o(.data) refers to exfuns.o(.conststring) for .conststring
    ff.o(i.check_fs) refers to diskio.o(i.disk_read) for disk_read
    ff.o(i.chk_mounted) refers to diskio.o(i.disk_status) for disk_status
    ff.o(i.chk_mounted) refers to diskio.o(i.disk_initialize) for disk_initialize
    ff.o(i.chk_mounted) refers to ff.o(i.check_fs) for check_fs
    ff.o(i.chk_mounted) refers to diskio.o(i.disk_read) for disk_read
    ff.o(i.chk_mounted) refers to ff.o(.data) for FatFs
    ff.o(i.cmp_lfn) refers to mycc936.o(i.ff_wtoupper) for ff_wtoupper
    ff.o(i.cmp_lfn) refers to ff.o(.constdata) for LfnOfs
    ff.o(i.create_chain) refers to ff.o(i.get_fat) for get_fat
    ff.o(i.create_chain) refers to ff.o(i.put_fat) for put_fat
    ff.o(i.create_name) refers to mycc936.o(i.ff_convert) for ff_convert
    ff.o(i.create_name) refers to ff.o(i.chk_chr) for chk_chr
    ff.o(i.create_name) refers to ff.o(i.mem_set) for mem_set
    ff.o(i.create_name) refers to mycc936.o(i.ff_wtoupper) for ff_wtoupper
    ff.o(i.dir_find) refers to ff.o(i.dir_sdi) for dir_sdi
    ff.o(i.dir_find) refers to ff.o(i.move_window) for move_window
    ff.o(i.dir_find) refers to ff.o(i.cmp_lfn) for cmp_lfn
    ff.o(i.dir_find) refers to ff.o(i.sum_sfn) for sum_sfn
    ff.o(i.dir_find) refers to ff.o(i.mem_cmp) for mem_cmp
    ff.o(i.dir_find) refers to ff.o(i.dir_next) for dir_next
    ff.o(i.dir_next) refers to ff.o(i.get_fat) for get_fat
    ff.o(i.dir_next) refers to ff.o(i.create_chain) for create_chain
    ff.o(i.dir_next) refers to ff.o(i.move_window) for move_window
    ff.o(i.dir_next) refers to ff.o(i.mem_set) for mem_set
    ff.o(i.dir_next) refers to ff.o(i.clust2sect) for clust2sect
    ff.o(i.dir_read) refers to ff.o(i.move_window) for move_window
    ff.o(i.dir_read) refers to ff.o(i.pick_lfn) for pick_lfn
    ff.o(i.dir_read) refers to ff.o(i.sum_sfn) for sum_sfn
    ff.o(i.dir_read) refers to ff.o(i.dir_next) for dir_next
    ff.o(i.dir_register) refers to ff.o(i.mem_cpy) for mem_cpy
    ff.o(i.dir_register) refers to ff.o(i.gen_numname) for gen_numname
    ff.o(i.dir_register) refers to ff.o(i.dir_find) for dir_find
    ff.o(i.dir_register) refers to ff.o(i.dir_sdi) for dir_sdi
    ff.o(i.dir_register) refers to ff.o(i.move_window) for move_window
    ff.o(i.dir_register) refers to ff.o(i.dir_next) for dir_next
    ff.o(i.dir_register) refers to ff.o(i.sum_sfn) for sum_sfn
    ff.o(i.dir_register) refers to ff.o(i.fit_lfn) for fit_lfn
    ff.o(i.dir_register) refers to ff.o(i.mem_set) for mem_set
    ff.o(i.dir_remove) refers to ff.o(i.dir_sdi) for dir_sdi
    ff.o(i.dir_remove) refers to ff.o(i.move_window) for move_window
    ff.o(i.dir_remove) refers to ff.o(i.dir_next) for dir_next
    ff.o(i.dir_sdi) refers to ff.o(i.get_fat) for get_fat
    ff.o(i.dir_sdi) refers to ff.o(i.clust2sect) for clust2sect
    ff.o(i.f_chmod) refers to ff.o(i.chk_mounted) for chk_mounted
    ff.o(i.f_chmod) refers to diskio.o(i.ff_memalloc) for ff_memalloc
    ff.o(i.f_chmod) refers to ff.o(i.follow_path) for follow_path
    ff.o(i.f_chmod) refers to diskio.o(i.ff_memfree) for ff_memfree
    ff.o(i.f_chmod) refers to ff.o(i.sync) for sync
    ff.o(i.f_close) refers to ff.o(i.f_sync) for f_sync
    ff.o(i.f_getfree) refers to ff.o(i.chk_mounted) for chk_mounted
    ff.o(i.f_getfree) refers to ff.o(i.get_fat) for get_fat
    ff.o(i.f_getfree) refers to ff.o(i.move_window) for move_window
    ff.o(i.f_gets) refers to ff.o(i.f_read) for f_read
    ff.o(i.f_lseek) refers to ff.o(i.validate) for validate
    ff.o(i.f_lseek) refers to ff.o(i.get_fat) for get_fat
    ff.o(i.f_lseek) refers to ff.o(i.clmt_clust) for clmt_clust
    ff.o(i.f_lseek) refers to ff.o(i.clust2sect) for clust2sect
    ff.o(i.f_lseek) refers to diskio.o(i.disk_write) for disk_write
    ff.o(i.f_lseek) refers to diskio.o(i.disk_read) for disk_read
    ff.o(i.f_lseek) refers to ff.o(i.create_chain) for create_chain
    ff.o(i.f_mkdir) refers to diskio.o(i.get_fattime) for get_fattime
    ff.o(i.f_mkdir) refers to ff.o(i.chk_mounted) for chk_mounted
    ff.o(i.f_mkdir) refers to diskio.o(i.ff_memalloc) for ff_memalloc
    ff.o(i.f_mkdir) refers to ff.o(i.follow_path) for follow_path
    ff.o(i.f_mkdir) refers to ff.o(i.create_chain) for create_chain
    ff.o(i.f_mkdir) refers to ff.o(i.move_window) for move_window
    ff.o(i.f_mkdir) refers to ff.o(i.clust2sect) for clust2sect
    ff.o(i.f_mkdir) refers to ff.o(i.mem_set) for mem_set
    ff.o(i.f_mkdir) refers to ff.o(i.st_clust) for st_clust
    ff.o(i.f_mkdir) refers to ff.o(i.mem_cpy) for mem_cpy
    ff.o(i.f_mkdir) refers to ff.o(i.dir_register) for dir_register
    ff.o(i.f_mkdir) refers to ff.o(i.remove_chain) for remove_chain
    ff.o(i.f_mkdir) refers to ff.o(i.sync) for sync
    ff.o(i.f_mkdir) refers to diskio.o(i.ff_memfree) for ff_memfree
    ff.o(i.f_mkfs) refers to diskio.o(i.disk_initialize) for disk_initialize
    ff.o(i.f_mkfs) refers to diskio.o(i.disk_ioctl) for disk_ioctl
    ff.o(i.f_mkfs) refers to ff.o(i.mem_set) for mem_set
    ff.o(i.f_mkfs) refers to diskio.o(i.disk_write) for disk_write
    ff.o(i.f_mkfs) refers to ff.o(i.mem_cpy) for mem_cpy
    ff.o(i.f_mkfs) refers to diskio.o(i.get_fattime) for get_fattime
    ff.o(i.f_mkfs) refers to ff.o(.data) for FatFs
    ff.o(i.f_mkfs) refers to ff.o(.constdata) for vst
    ff.o(i.f_mount) refers to ff.o(.data) for FatFs
    ff.o(i.f_open) refers to ff.o(i.chk_mounted) for chk_mounted
    ff.o(i.f_open) refers to diskio.o(i.ff_memalloc) for ff_memalloc
    ff.o(i.f_open) refers to ff.o(i.follow_path) for follow_path
    ff.o(i.f_open) refers to ff.o(i.dir_register) for dir_register
    ff.o(i.f_open) refers to diskio.o(i.get_fattime) for get_fattime
    ff.o(i.f_open) refers to ff.o(i.ld_clust) for ld_clust
    ff.o(i.f_open) refers to ff.o(i.st_clust) for st_clust
    ff.o(i.f_open) refers to ff.o(i.remove_chain) for remove_chain
    ff.o(i.f_open) refers to ff.o(i.move_window) for move_window
    ff.o(i.f_open) refers to diskio.o(i.ff_memfree) for ff_memfree
    ff.o(i.f_opendir) refers to ff.o(i.chk_mounted) for chk_mounted
    ff.o(i.f_opendir) refers to diskio.o(i.ff_memalloc) for ff_memalloc
    ff.o(i.f_opendir) refers to ff.o(i.follow_path) for follow_path
    ff.o(i.f_opendir) refers to diskio.o(i.ff_memfree) for ff_memfree
    ff.o(i.f_opendir) refers to ff.o(i.ld_clust) for ld_clust
    ff.o(i.f_opendir) refers to ff.o(i.dir_sdi) for dir_sdi
    ff.o(i.f_printf) refers to ff.o(i.f_putc) for f_putc
    ff.o(i.f_printf) refers to ff.o(i.f_puts) for f_puts
    ff.o(i.f_putc) refers to ff.o(i.f_write) for f_write
    ff.o(i.f_puts) refers to ff.o(i.f_putc) for f_putc
    ff.o(i.f_read) refers to ff.o(i.validate) for validate
    ff.o(i.f_read) refers to ff.o(i.clmt_clust) for clmt_clust
    ff.o(i.f_read) refers to ff.o(i.get_fat) for get_fat
    ff.o(i.f_read) refers to ff.o(i.clust2sect) for clust2sect
    ff.o(i.f_read) refers to diskio.o(i.disk_read) for disk_read
    ff.o(i.f_read) refers to ff.o(i.mem_cpy) for mem_cpy
    ff.o(i.f_read) refers to diskio.o(i.disk_write) for disk_write
    ff.o(i.f_readdir) refers to ff.o(i.validate) for validate
    ff.o(i.f_readdir) refers to ff.o(i.dir_sdi) for dir_sdi
    ff.o(i.f_readdir) refers to diskio.o(i.ff_memalloc) for ff_memalloc
    ff.o(i.f_readdir) refers to ff.o(i.dir_read) for dir_read
    ff.o(i.f_readdir) refers to ff.o(i.get_fileinfo) for get_fileinfo
    ff.o(i.f_readdir) refers to ff.o(i.dir_next) for dir_next
    ff.o(i.f_readdir) refers to diskio.o(i.ff_memfree) for ff_memfree
    ff.o(i.f_rename) refers to ff.o(i.chk_mounted) for chk_mounted
    ff.o(i.f_rename) refers to diskio.o(i.ff_memalloc) for ff_memalloc
    ff.o(i.f_rename) refers to ff.o(i.follow_path) for follow_path
    ff.o(i.f_rename) refers to ff.o(i.mem_cpy) for mem_cpy
    ff.o(i.f_rename) refers to ff.o(i.dir_register) for dir_register
    ff.o(i.f_rename) refers to ff.o(i.ld_clust) for ld_clust
    ff.o(i.f_rename) refers to ff.o(i.clust2sect) for clust2sect
    ff.o(i.f_rename) refers to ff.o(i.move_window) for move_window
    ff.o(i.f_rename) refers to ff.o(i.st_clust) for st_clust
    ff.o(i.f_rename) refers to ff.o(i.dir_remove) for dir_remove
    ff.o(i.f_rename) refers to ff.o(i.sync) for sync
    ff.o(i.f_rename) refers to diskio.o(i.ff_memfree) for ff_memfree
    ff.o(i.f_stat) refers to ff.o(i.chk_mounted) for chk_mounted
    ff.o(i.f_stat) refers to diskio.o(i.ff_memalloc) for ff_memalloc
    ff.o(i.f_stat) refers to ff.o(i.follow_path) for follow_path
    ff.o(i.f_stat) refers to ff.o(i.get_fileinfo) for get_fileinfo
    ff.o(i.f_stat) refers to diskio.o(i.ff_memfree) for ff_memfree
    ff.o(i.f_sync) refers to ff.o(i.validate) for validate
    ff.o(i.f_sync) refers to diskio.o(i.disk_write) for disk_write
    ff.o(i.f_sync) refers to ff.o(i.move_window) for move_window
    ff.o(i.f_sync) refers to ff.o(i.st_clust) for st_clust
    ff.o(i.f_sync) refers to diskio.o(i.get_fattime) for get_fattime
    ff.o(i.f_sync) refers to ff.o(i.sync) for sync
    ff.o(i.f_truncate) refers to ff.o(i.validate) for validate
    ff.o(i.f_truncate) refers to ff.o(i.remove_chain) for remove_chain
    ff.o(i.f_truncate) refers to ff.o(i.get_fat) for get_fat
    ff.o(i.f_truncate) refers to ff.o(i.put_fat) for put_fat
    ff.o(i.f_unlink) refers to ff.o(i.chk_mounted) for chk_mounted
    ff.o(i.f_unlink) refers to diskio.o(i.ff_memalloc) for ff_memalloc
    ff.o(i.f_unlink) refers to ff.o(i.follow_path) for follow_path
    ff.o(i.f_unlink) refers to ff.o(i.ld_clust) for ld_clust
    ff.o(i.f_unlink) refers to ff.o(i.mem_cpy) for mem_cpy
    ff.o(i.f_unlink) refers to ff.o(i.dir_sdi) for dir_sdi
    ff.o(i.f_unlink) refers to ff.o(i.dir_read) for dir_read
    ff.o(i.f_unlink) refers to ff.o(i.dir_remove) for dir_remove
    ff.o(i.f_unlink) refers to ff.o(i.remove_chain) for remove_chain
    ff.o(i.f_unlink) refers to ff.o(i.sync) for sync
    ff.o(i.f_unlink) refers to diskio.o(i.ff_memfree) for ff_memfree
    ff.o(i.f_utime) refers to ff.o(i.chk_mounted) for chk_mounted
    ff.o(i.f_utime) refers to diskio.o(i.ff_memalloc) for ff_memalloc
    ff.o(i.f_utime) refers to ff.o(i.follow_path) for follow_path
    ff.o(i.f_utime) refers to diskio.o(i.ff_memfree) for ff_memfree
    ff.o(i.f_utime) refers to ff.o(i.sync) for sync
    ff.o(i.f_write) refers to ff.o(i.validate) for validate
    ff.o(i.f_write) refers to ff.o(i.create_chain) for create_chain
    ff.o(i.f_write) refers to ff.o(i.clmt_clust) for clmt_clust
    ff.o(i.f_write) refers to diskio.o(i.disk_write) for disk_write
    ff.o(i.f_write) refers to ff.o(i.clust2sect) for clust2sect
    ff.o(i.f_write) refers to ff.o(i.mem_cpy) for mem_cpy
    ff.o(i.f_write) refers to diskio.o(i.disk_read) for disk_read
    ff.o(i.fit_lfn) refers to ff.o(.constdata) for LfnOfs
    ff.o(i.follow_path) refers to ff.o(i.dir_sdi) for dir_sdi
    ff.o(i.follow_path) refers to ff.o(i.create_name) for create_name
    ff.o(i.follow_path) refers to ff.o(i.dir_find) for dir_find
    ff.o(i.follow_path) refers to ff.o(i.ld_clust) for ld_clust
    ff.o(i.gen_numname) refers to ff.o(i.mem_cpy) for mem_cpy
    ff.o(i.get_fat) refers to ff.o(i.move_window) for move_window
    ff.o(i.get_fileinfo) refers to mycc936.o(i.ff_convert) for ff_convert
    ff.o(i.move_window) refers to diskio.o(i.disk_write) for disk_write
    ff.o(i.move_window) refers to diskio.o(i.disk_read) for disk_read
    ff.o(i.pick_lfn) refers to ff.o(.constdata) for LfnOfs
    ff.o(i.put_fat) refers to ff.o(i.move_window) for move_window
    ff.o(i.remove_chain) refers to ff.o(i.get_fat) for get_fat
    ff.o(i.remove_chain) refers to ff.o(i.put_fat) for put_fat
    ff.o(i.sync) refers to ff.o(i.move_window) for move_window
    ff.o(i.sync) refers to ff.o(i.mem_set) for mem_set
    ff.o(i.sync) refers to diskio.o(i.disk_write) for disk_write
    ff.o(i.sync) refers to diskio.o(i.disk_ioctl) for disk_ioctl
    ff.o(i.validate) refers to diskio.o(i.disk_status) for disk_status
    mycc936.o(i.ff_convert) refers to flash.o(i.SPI_Flash_Read) for SPI_Flash_Read
    mycc936.o(i.ff_convert) refers to fontupd.o(.bss) for ftinfo
    mycc936.o(i.ff_wtoupper) refers to mycc936.o(.constdata) for tbl_lower
    fontupd.o(i.font_init) refers to flash.o(i.SPI_Flash_Init) for SPI_Flash_Init
    fontupd.o(i.font_init) refers to flash.o(i.SPI_Flash_Read) for SPI_Flash_Read
    fontupd.o(i.font_init) refers to fontupd.o(.data) for FONTINFOADDR
    fontupd.o(i.font_init) refers to fontupd.o(.bss) for ftinfo
    lower.o(i.low_fix_trans_bug) refers to delay.o(i.delay_ms) for delay_ms
    lower.o(i.low_fix_trans_bug) refers to lower.o(i.uart_tx) for uart_tx
    lower.o(i.low_fix_trans_bug) refers to lower.o(i.low_fix_trans_bug_read_byte) for low_fix_trans_bug_read_byte
    lower.o(i.low_fix_trans_bug) refers to lower.o(.data) for lower_state
    lower.o(i.low_fix_trans_bug) refers to lower.o(.constdata) for boot_conn_ack
    lower.o(i.low_fix_trans_bug_read_byte) refers to lower.o(i.lower_uart_tx) for lower_uart_tx
    lower.o(i.low_fix_trans_bug_read_byte) refers to lower.o(.data) for lower_state
    lower.o(i.low_fix_trans_bug_read_byte) refers to lower.o(i.low_fix_trans_bug_read_byte_ack) for low_fix_trans_bug_read_byte_ack
    lower.o(i.low_fix_trans_bug_read_byte_ack) refers to lower.o(i.lower_uart_tx_bin) for lower_uart_tx_bin
    lower.o(i.low_fix_trans_bug_read_byte_ack) refers to lower.o(.data) for current_received_count
    lower.o(i.lower_get_state) refers to lower.o(.data) for lower_state
    lower.o(i.lower_set_state) refers to lower.o(.data) for lower_state
    lower.o(i.lower_uart_reset) refers to lower.o(.data) for lower_state
    lower.o(i.lower_uart_reset) refers to lower.o(i.lower_uart_tx_bin) for lower_uart_tx_bin
    lower.o(i.lower_uart_rx) refers to lower.o(i.lower_uart_rx_idle) for lower_uart_rx_idle
    lower.o(i.lower_uart_rx) refers to lower.o(i.lower_uart_rx_hand_shake) for lower_uart_rx_hand_shake
    lower.o(i.lower_uart_rx) refers to lower.o(i.lower_uart_rx_ack) for lower_uart_rx_ack
    lower.o(i.lower_uart_rx) refers to lower.o(i.lower_uart_rx_content) for lower_uart_rx_content
    lower.o(i.lower_uart_rx) refers to lower.o(.data) for lower_state
    lower.o(i.lower_uart_rx_ack) refers to lower.o(i.lower_uart_tx_disconnect) for lower_uart_tx_disconnect
    lower.o(i.lower_uart_rx_ack) refers to lower.o(i.lower_uart_reset) for lower_uart_reset
    lower.o(i.lower_uart_rx_ack) refers to lower.o(.data) for current_received_count
    lower.o(i.lower_uart_rx_ack) refers to lower.o(.bss) for header
    lower.o(i.lower_uart_rx_content) refers to lower.o(.data) for lower_rx_buffer
    lower.o(i.lower_uart_rx_hand_shake) refers to lower.o(.constdata) for boot_conn_success
    lower.o(i.lower_uart_rx_hand_shake) refers to lower.o(.data) for current_received_count
    lower.o(i.lower_uart_rx_idle) refers to memcmp.o(.text) for memcmp
    lower.o(i.lower_uart_rx_idle) refers to lower.o(i.uart_tx) for uart_tx
    lower.o(i.lower_uart_rx_idle) refers to lower.o(.data) for current_received_count
    lower.o(i.lower_uart_rx_idle) refers to lower.o(.constdata) for boot_conn_req
    lower.o(i.lower_uart_rx_idle) refers to main.o(.data) for f_hid_bin
    lower.o(i.lower_uart_tx) refers to lower.o(i.uart_tx) for uart_tx
    lower.o(i.lower_uart_tx_bin) refers to malloc.o(i.mymalloc) for mymalloc
    lower.o(i.lower_uart_tx_bin) refers to ff.o(i.f_lseek) for f_lseek
    lower.o(i.lower_uart_tx_bin) refers to ff.o(i.f_read) for f_read
    lower.o(i.lower_uart_tx_bin) refers to rt_memcpy_v6.o(.text) for __aeabi_memcpy
    lower.o(i.lower_uart_tx_bin) refers to lower.o(i.lower_uart_tx) for lower_uart_tx
    lower.o(i.lower_uart_tx_bin) refers to lower.o(.data) for lower_tx_buffer
    lower.o(i.lower_uart_tx_bin) refers to main.o(.data) for f_hid_bin
    lower.o(i.lower_uart_tx_bin) refers to lower.o(.constdata) for bd_addr_offset
    lower.o(i.lower_uart_tx_bin) refers to lower.o(i.lower_uart_tx_disconnect) for lower_uart_tx_disconnect
    lower.o(i.lower_uart_tx_disconnect) refers to lower.o(i.lower_uart_tx) for lower_uart_tx
    lower.o(i.lower_uart_tx_disconnect) refers to lower.o(.data) for lower_state
    lower.o(i.lower_uart_tx_disconnect) refers to lower.o(i.lower_uart_reset) for lower_uart_reset
    lower.o(i.uart_tx) refers to usart.o(i.uart2_tx) for uart2_tx
    lower.o(.data) refers to lower.o(i.lower_uart_tx_bin) for lower_uart_tx_bin
    use_no_semi_2.o(.text) refers (Special) to use_no_semi.o(.text) for __use_no_semihosting_swi
    llsdiv.o(.text) refers to lludivv7m.o(.text) for __aeabi_uldivmod
    __2printf.o(.text) refers to _printf_char_file.o(.text) for _printf_char_file
    __2printf.o(.text) refers to usart.o(.data) for __stdout
    noretval__2printf.o(.text) refers to _printf_char_file.o(.text) for _printf_char_file
    noretval__2printf.o(.text) refers to usart.o(.data) for __stdout
    __printf.o(.text) refers to _printf_percent.o(.ARM.Collect$$_printf_percent$$00000000) for _printf_percent
    _printf_dec.o(.text) refers to _printf_intcommon.o(.text) for _printf_int_common
    _printf_hex_ll.o(.text) refers to _printf_intcommon.o(.text) for _printf_int_common
    _printf_hex_ll.o(.text) refers to _printf_hex_ll.o(.constdata) for .constdata
    _printf_hex_int.o(.text) refers to _printf_intcommon.o(.text) for _printf_int_common
    _printf_hex_int.o(.text) refers to _printf_hex_int.o(.constdata) for .constdata
    _printf_hex_int_ll.o(.text) refers to _printf_intcommon.o(.text) for _printf_int_common
    _printf_hex_int_ll.o(.text) refers to _printf_hex_int_ll.o(.constdata) for .constdata
    _printf_hex_ptr.o(.text) refers to _printf_intcommon.o(.text) for _printf_int_common
    _printf_hex_ptr.o(.text) refers to _printf_hex_ptr.o(.constdata) for .constdata
    _printf_hex_int_ptr.o(.text) refers to _printf_intcommon.o(.text) for _printf_int_common
    _printf_hex_int_ptr.o(.text) refers to _printf_hex_int_ptr.o(.constdata) for .constdata
    _printf_hex_ll_ptr.o(.text) refers to _printf_intcommon.o(.text) for _printf_int_common
    _printf_hex_ll_ptr.o(.text) refers to _printf_hex_ll_ptr.o(.constdata) for .constdata
    _printf_hex_int_ll_ptr.o(.text) refers to _printf_intcommon.o(.text) for _printf_int_common
    _printf_hex_int_ll_ptr.o(.text) refers to _printf_hex_int_ll_ptr.o(.constdata) for .constdata
    __printf_flags.o(.text) refers to _printf_percent.o(.ARM.Collect$$_printf_percent$$00000000) for _printf_percent
    __printf_flags.o(.text) refers to __printf_flags.o(.constdata) for .constdata
    __printf_ss.o(.text) refers to _printf_percent.o(.ARM.Collect$$_printf_percent$$00000000) for _printf_percent
    __printf_flags_ss.o(.text) refers to _printf_percent.o(.ARM.Collect$$_printf_percent$$00000000) for _printf_percent
    __printf_flags_ss.o(.text) refers to __printf_flags_ss.o(.constdata) for .constdata
    __printf_wp.o(.text) refers to __printf_wp.o(i._is_digit) for _is_digit
    __printf_wp.o(.text) refers to _printf_percent.o(.ARM.Collect$$_printf_percent$$00000000) for _printf_percent
    __printf_flags_wp.o(.text) refers to __printf_wp.o(i._is_digit) for _is_digit
    __printf_flags_wp.o(.text) refers to _printf_percent.o(.ARM.Collect$$_printf_percent$$00000000) for _printf_percent
    __printf_flags_wp.o(.text) refers to __printf_flags_wp.o(.constdata) for .constdata
    __printf_ss_wp.o(.text) refers to __printf_wp.o(i._is_digit) for _is_digit
    __printf_ss_wp.o(.text) refers to _printf_percent.o(.ARM.Collect$$_printf_percent$$00000000) for _printf_percent
    __printf_flags_ss_wp.o(.text) refers to __printf_wp.o(i._is_digit) for _is_digit
    __printf_flags_ss_wp.o(.text) refers to _printf_percent.o(.ARM.Collect$$_printf_percent$$00000000) for _printf_percent
    __printf_flags_ss_wp.o(.text) refers to __printf_flags_ss_wp.o(.constdata) for .constdata
    _printf_x.o(.ARM.Collect$$_printf_percent$$0000000C) refers (Weak) to _printf_hex_int.o(.text) for _printf_int_hex
    _printf_d.o(.ARM.Collect$$_printf_percent$$00000009) refers (Weak) to _printf_dec.o(.text) for _printf_int_dec
    _printf_percent.o(.ARM.Collect$$_printf_percent$$00000000) refers (Special) to _printf_percent_end.o(.ARM.Collect$$_printf_percent$$00000017) for _printf_percent_end
    rt_memcpy_v6.o(.text) refers to rt_memcpy_w.o(.text) for __aeabi_memcpy4
    __main.o(!!!main) refers to __rtentry.o(.ARM.Collect$$rtentry$$00000000) for __rt_entry
    faddsub_clz.o(x$fpl$fadd) refers (Special) to usenofp.o(x$fpl$usenofp) for __I$use$fp
    faddsub_clz.o(x$fpl$fadd) refers to faddsub_clz.o(x$fpl$fsub) for _fsub1
    faddsub_clz.o(x$fpl$fadd) refers to fretinf.o(x$fpl$fretinf) for __fpl_fretinf
    faddsub_clz.o(x$fpl$fadd) refers to fnaninf.o(x$fpl$fnaninf) for __fpl_fnaninf
    faddsub_clz.o(x$fpl$frsb) refers (Special) to usenofp.o(x$fpl$usenofp) for __I$use$fp
    faddsub_clz.o(x$fpl$frsb) refers to faddsub_clz.o(x$fpl$fadd) for _fadd1
    faddsub_clz.o(x$fpl$frsb) refers to faddsub_clz.o(x$fpl$fsub) for _fsub1
    faddsub_clz.o(x$fpl$fsub) refers (Special) to usenofp.o(x$fpl$usenofp) for __I$use$fp
    faddsub_clz.o(x$fpl$fsub) refers to faddsub_clz.o(x$fpl$fadd) for _fadd1
    faddsub_clz.o(x$fpl$fsub) refers to fnaninf.o(x$fpl$fnaninf) for __fpl_fnaninf
    fdiv.o(x$fpl$frdiv) refers (Special) to usenofp.o(x$fpl$usenofp) for __I$use$fp
    fdiv.o(x$fpl$frdiv) refers to fdiv.o(x$fpl$fdiv) for _fdiv1
    fdiv.o(x$fpl$fdiv) refers (Special) to usenofp.o(x$fpl$usenofp) for __I$use$fp
    fdiv.o(x$fpl$fdiv) refers to fretinf.o(x$fpl$fretinf) for __fpl_fretinf
    fdiv.o(x$fpl$fdiv) refers to fnaninf.o(x$fpl$fnaninf) for __fpl_fnaninf
    ffixu.o(x$fpl$ffixu) refers (Special) to usenofp.o(x$fpl$usenofp) for __I$use$fp
    ffixu.o(x$fpl$ffixu) refers to fnaninf.o(x$fpl$fnaninf) for __fpl_fnaninf
    ffixu.o(x$fpl$ffixur) refers (Special) to usenofp.o(x$fpl$usenofp) for __I$use$fp
    ffixu.o(x$fpl$ffixur) refers to fnaninf.o(x$fpl$fnaninf) for __fpl_fnaninf
    fflt_clz.o(x$fpl$ffltu) refers (Special) to usenofp.o(x$fpl$usenofp) for __I$use$fp
    fflt_clz.o(x$fpl$fflt) refers (Special) to usenofp.o(x$fpl$usenofp) for __I$use$fp
    fflt_clz.o(x$fpl$ffltn) refers (Special) to usenofp.o(x$fpl$usenofp) for __I$use$fp
    fmul.o(x$fpl$fmul) refers (Special) to usenofp.o(x$fpl$usenofp) for __I$use$fp
    fmul.o(x$fpl$fmul) refers to fretinf.o(x$fpl$fretinf) for __fpl_fretinf
    fmul.o(x$fpl$fmul) refers to fnaninf.o(x$fpl$fnaninf) for __fpl_fnaninf
    __rtentry.o(.ARM.Collect$$rtentry$$00000000) refers (Special) to __rtentry2.o(.ARM.Collect$$rtentry$$0000000A) for __rt_entry_li
    __rtentry.o(.ARM.Collect$$rtentry$$00000000) refers (Special) to __rtentry2.o(.ARM.Collect$$rtentry$$0000000D) for __rt_entry_main
    __rtentry.o(.ARM.Collect$$rtentry$$00000000) refers (Special) to __rtentry2.o(.ARM.Collect$$rtentry$$0000000C) for __rt_entry_postli_1
    __rtentry.o(.ARM.Collect$$rtentry$$00000000) refers (Special) to __rtentry2.o(.ARM.Collect$$rtentry$$00000009) for __rt_entry_postsh_1
    __rtentry.o(.ARM.Collect$$rtentry$$00000000) refers (Special) to __rtentry2.o(.ARM.Collect$$rtentry$$00000002) for __rt_entry_presh_1
    __rtentry.o(.ARM.Collect$$rtentry$$00000000) refers (Special) to __rtentry4.o(.ARM.Collect$$rtentry$$00000004) for __rt_entry_sh
    _printf_char_file.o(.text) refers to _printf_char_common.o(.text) for _printf_char_common
    _printf_char_file.o(.text) refers to ferror.o(.text) for ferror
    _printf_char_file.o(.text) refers to usart.o(i.fputc) for fputc
    fnaninf.o(x$fpl$fnaninf) refers (Special) to usenofp.o(x$fpl$usenofp) for __I$use$fp
    fretinf.o(x$fpl$fretinf) refers (Special) to usenofp.o(x$fpl$usenofp) for __I$use$fp
    __rtentry2.o(.ARM.Collect$$rtentry$$00000008) refers to boardinit2.o(.text) for _platform_post_stackheap_init
    __rtentry2.o(.ARM.Collect$$rtentry$$0000000A) refers to libinit.o(.ARM.Collect$$libinit$$00000000) for __rt_lib_init
    __rtentry2.o(.ARM.Collect$$rtentry$$0000000B) refers to boardinit3.o(.text) for _platform_post_lib_init
    __rtentry2.o(.ARM.Collect$$rtentry$$0000000D) refers to main.o(i.main) for main
    __rtentry2.o(.ARM.Collect$$rtentry$$0000000D) refers to exit.o(.text) for exit
    __rtentry2.o(.ARM.exidx) refers to __rtentry2.o(.ARM.Collect$$rtentry$$00000001) for .ARM.Collect$$rtentry$$00000001
    __rtentry2.o(.ARM.exidx) refers to __rtentry2.o(.ARM.Collect$$rtentry$$00000008) for .ARM.Collect$$rtentry$$00000008
    __rtentry2.o(.ARM.exidx) refers to __rtentry2.o(.ARM.Collect$$rtentry$$0000000A) for .ARM.Collect$$rtentry$$0000000A
    __rtentry2.o(.ARM.exidx) refers to __rtentry2.o(.ARM.Collect$$rtentry$$0000000B) for .ARM.Collect$$rtentry$$0000000B
    __rtentry2.o(.ARM.exidx) refers to __rtentry2.o(.ARM.Collect$$rtentry$$0000000D) for .ARM.Collect$$rtentry$$0000000D
    __rtentry4.o(.ARM.Collect$$rtentry$$00000004) refers to sys_stackheap_outer.o(.text) for __user_setup_stackheap
    __rtentry4.o(.ARM.exidx) refers to __rtentry4.o(.ARM.Collect$$rtentry$$00000004) for .ARM.Collect$$rtentry$$00000004
    aeabi_ldiv0_sigfpe.o(.text) refers to rt_div0.o(.text) for __rt_div0
    _printf_char_common.o(.text) refers to __printf.o(.text) for __printf
    sys_stackheap_outer.o(.text) refers to libspace.o(.text) for __user_perproc_libspace
    sys_stackheap_outer.o(.text) refers to startup_stm32f10x_hd.o(.text) for __user_initial_stackheap
    rt_div0.o(.text) refers to defsig_fpe_outer.o(.text) for __rt_SIGFPE
    exit.o(.text) refers to rtexit.o(.ARM.Collect$$rtexit$$00000000) for __rt_exit
    libinit.o(.ARM.Collect$$libinit$$00000000) refers (Special) to libinit2.o(.ARM.Collect$$libinit$$0000002E) for __rt_lib_init_alloca_1
    libinit.o(.ARM.Collect$$libinit$$00000000) refers (Special) to libinit2.o(.ARM.Collect$$libinit$$0000002C) for __rt_lib_init_argv_1
    libinit.o(.ARM.Collect$$libinit$$00000000) refers (Special) to libinit2.o(.ARM.Collect$$libinit$$0000001B) for __rt_lib_init_atexit_1
    libinit.o(.ARM.Collect$$libinit$$00000000) refers (Special) to libinit2.o(.ARM.Collect$$libinit$$00000021) for __rt_lib_init_clock_1
    libinit.o(.ARM.Collect$$libinit$$00000000) refers (Special) to libinit2.o(.ARM.Collect$$libinit$$00000032) for __rt_lib_init_cpp_1
    libinit.o(.ARM.Collect$$libinit$$00000000) refers (Special) to libinit2.o(.ARM.Collect$$libinit$$00000030) for __rt_lib_init_exceptions_1
    libinit.o(.ARM.Collect$$libinit$$00000000) refers (Special) to libinit2.o(.ARM.Collect$$libinit$$00000002) for __rt_lib_init_fp_1
    libinit.o(.ARM.Collect$$libinit$$00000000) refers (Special) to libinit2.o(.ARM.Collect$$libinit$$0000001F) for __rt_lib_init_fp_trap_1
    libinit.o(.ARM.Collect$$libinit$$00000000) refers (Special) to libinit2.o(.ARM.Collect$$libinit$$00000023) for __rt_lib_init_getenv_1
    libinit.o(.ARM.Collect$$libinit$$00000000) refers (Special) to libinit2.o(.ARM.Collect$$libinit$$0000000A) for __rt_lib_init_heap_1
    libinit.o(.ARM.Collect$$libinit$$00000000) refers (Special) to libinit2.o(.ARM.Collect$$libinit$$00000011) for __rt_lib_init_lc_collate_1
    libinit.o(.ARM.Collect$$libinit$$00000000) refers (Special) to libinit2.o(.ARM.Collect$$libinit$$00000013) for __rt_lib_init_lc_ctype_1
    libinit.o(.ARM.Collect$$libinit$$00000000) refers (Special) to libinit2.o(.ARM.Collect$$libinit$$00000015) for __rt_lib_init_lc_monetary_1
    libinit.o(.ARM.Collect$$libinit$$00000000) refers (Special) to libinit2.o(.ARM.Collect$$libinit$$00000017) for __rt_lib_init_lc_numeric_1
    libinit.o(.ARM.Collect$$libinit$$00000000) refers (Special) to libinit2.o(.ARM.Collect$$libinit$$00000019) for __rt_lib_init_lc_time_1
    libinit.o(.ARM.Collect$$libinit$$00000000) refers (Special) to libinit2.o(.ARM.Collect$$libinit$$00000004) for __rt_lib_init_preinit_1
    libinit.o(.ARM.Collect$$libinit$$00000000) refers (Special) to libinit2.o(.ARM.Collect$$libinit$$0000000E) for __rt_lib_init_rand_1
    libinit.o(.ARM.Collect$$libinit$$00000000) refers (Special) to libinit2.o(.ARM.Collect$$libinit$$00000033) for __rt_lib_init_return
    libinit.o(.ARM.Collect$$libinit$$00000000) refers (Special) to libinit2.o(.ARM.Collect$$libinit$$0000001D) for __rt_lib_init_signal_1
    libinit.o(.ARM.Collect$$libinit$$00000000) refers (Special) to libinit2.o(.ARM.Collect$$libinit$$00000025) for __rt_lib_init_stdio_1
    libinit.o(.ARM.Collect$$libinit$$00000000) refers (Special) to libinit2.o(.ARM.Collect$$libinit$$0000000C) for __rt_lib_init_user_alloc_1
    libspace.o(.text) refers to libspace.o(.bss) for __libspace_start
    rtexit.o(.ARM.Collect$$rtexit$$00000000) refers (Special) to rtexit2.o(.ARM.Collect$$rtexit$$00000004) for __rt_exit_exit
    rtexit.o(.ARM.Collect$$rtexit$$00000000) refers (Special) to rtexit2.o(.ARM.Collect$$rtexit$$00000003) for __rt_exit_ls
    rtexit.o(.ARM.Collect$$rtexit$$00000000) refers (Special) to rtexit2.o(.ARM.Collect$$rtexit$$00000002) for __rt_exit_prels_1
    rtexit.o(.ARM.exidx) refers (Special) to rtexit2.o(.ARM.Collect$$rtexit$$00000004) for __rt_exit_exit
    rtexit.o(.ARM.exidx) refers (Special) to rtexit2.o(.ARM.Collect$$rtexit$$00000003) for __rt_exit_ls
    rtexit.o(.ARM.exidx) refers (Special) to rtexit2.o(.ARM.Collect$$rtexit$$00000002) for __rt_exit_prels_1
    rtexit.o(.ARM.exidx) refers to rtexit.o(.ARM.Collect$$rtexit$$00000000) for .ARM.Collect$$rtexit$$00000000
    defsig_fpe_outer.o(.text) refers to defsig_fpe_inner.o(.text) for __rt_SIGFPE_inner
    defsig_fpe_outer.o(.text) refers to defsig_exit.o(.text) for __sig_exit
    defsig_fpe_formal.o(.text) refers to rt_raise.o(.text) for __rt_raise
    libinit2.o(.ARM.Collect$$libinit$$00000010) refers to libinit2.o(.ARM.Collect$$libinit$$0000000F) for .ARM.Collect$$libinit$$0000000F
    libinit2.o(.ARM.Collect$$libinit$$00000012) refers to libinit2.o(.ARM.Collect$$libinit$$0000000F) for .ARM.Collect$$libinit$$0000000F
    libinit2.o(.ARM.Collect$$libinit$$00000014) refers to libinit2.o(.ARM.Collect$$libinit$$0000000F) for .ARM.Collect$$libinit$$0000000F
    libinit2.o(.ARM.Collect$$libinit$$00000016) refers to libinit2.o(.ARM.Collect$$libinit$$0000000F) for .ARM.Collect$$libinit$$0000000F
    libinit2.o(.ARM.Collect$$libinit$$00000018) refers to libinit2.o(.ARM.Collect$$libinit$$0000000F) for .ARM.Collect$$libinit$$0000000F
    libinit2.o(.ARM.Collect$$libinit$$00000026) refers to argv_veneer.o(.emb_text) for __ARM_argv_veneer
    libinit2.o(.ARM.Collect$$libinit$$00000027) refers to argv_veneer.o(.emb_text) for __ARM_argv_veneer
    rtexit2.o(.ARM.Collect$$rtexit$$00000003) refers to libshutdown.o(.ARM.Collect$$libshutdown$$00000000) for __rt_lib_shutdown
    rtexit2.o(.ARM.Collect$$rtexit$$00000004) refers to usart.o(i._sys_exit) for _sys_exit
    rtexit2.o(.ARM.exidx) refers to rtexit2.o(.ARM.Collect$$rtexit$$00000001) for .ARM.Collect$$rtexit$$00000001
    rtexit2.o(.ARM.exidx) refers to rtexit2.o(.ARM.Collect$$rtexit$$00000003) for .ARM.Collect$$rtexit$$00000003
    rtexit2.o(.ARM.exidx) refers to rtexit2.o(.ARM.Collect$$rtexit$$00000004) for .ARM.Collect$$rtexit$$00000004
    rt_raise.o(.text) refers to __raise.o(.text) for __raise
    rt_raise.o(.text) refers to usart.o(i._sys_exit) for _sys_exit
    defsig_exit.o(.text) refers to usart.o(i._sys_exit) for _sys_exit
    defsig_fpe_inner.o(.text) refers to defsig_general.o(.text) for __default_signal_display
    argv_veneer.o(.emb_text) refers to no_argv.o(.text) for __ARM_get_argv
    __raise.o(.text) refers to defsig.o(CL$$defsig) for __default_signal_handler
    defsig_general.o(.text) refers to sys_wrch.o(.text) for _ttywrch
    _get_argv_nomalloc.o(.text) refers (Special) to hrguard.o(.text) for __heap_region$guard
    _get_argv_nomalloc.o(.text) refers to defsig_rtmem_outer.o(.text) for __rt_SIGRTMEM
    _get_argv_nomalloc.o(.text) refers to sys_command.o(.text) for _sys_command_string
    libshutdown.o(.ARM.Collect$$libshutdown$$00000000) refers (Special) to libshutdown2.o(.ARM.Collect$$libshutdown$$00000002) for __rt_lib_shutdown_cpp_1
    libshutdown.o(.ARM.Collect$$libshutdown$$00000000) refers (Special) to libshutdown2.o(.ARM.Collect$$libshutdown$$00000007) for __rt_lib_shutdown_fp_trap_1
    libshutdown.o(.ARM.Collect$$libshutdown$$00000000) refers (Special) to libshutdown2.o(.ARM.Collect$$libshutdown$$0000000F) for __rt_lib_shutdown_heap_1
    libshutdown.o(.ARM.Collect$$libshutdown$$00000000) refers (Special) to libshutdown2.o(.ARM.Collect$$libshutdown$$00000010) for __rt_lib_shutdown_return
    libshutdown.o(.ARM.Collect$$libshutdown$$00000000) refers (Special) to libshutdown2.o(.ARM.Collect$$libshutdown$$0000000A) for __rt_lib_shutdown_signal_1
    libshutdown.o(.ARM.Collect$$libshutdown$$00000000) refers (Special) to libshutdown2.o(.ARM.Collect$$libshutdown$$00000004) for __rt_lib_shutdown_stdio_1
    libshutdown.o(.ARM.Collect$$libshutdown$$00000000) refers (Special) to libshutdown2.o(.ARM.Collect$$libshutdown$$0000000C) for __rt_lib_shutdown_user_alloc_1
    sys_wrch.o(.text) refers (Special) to use_no_semi.o(.text) for __I$use$semihosting
    sys_wrch.o(.text) refers (Special) to indicate_semi.o(.text) for __semihosting_library_function
    sys_command.o(.text) refers (Special) to use_no_semi.o(.text) for __I$use$semihosting
    sys_command.o(.text) refers (Special) to indicate_semi.o(.text) for __semihosting_library_function
    defsig_rtmem_outer.o(.text) refers to defsig_rtmem_inner.o(.text) for __rt_SIGRTMEM_inner
    defsig_rtmem_outer.o(.text) refers to defsig_exit.o(.text) for __sig_exit
    defsig_rtmem_formal.o(.text) refers to rt_raise.o(.text) for __rt_raise
    defsig.o(CL$$defsig) refers to defsig_fpe_inner.o(.text) for __rt_SIGFPE_inner
    defsig.o(CL$$defsig) refers to defsig_rtmem_inner.o(.text) for __rt_SIGRTMEM_inner
    defsig_abrt_inner.o(.text) refers to defsig_general.o(.text) for __default_signal_display
    defsig_rtred_inner.o(.text) refers to defsig_general.o(.text) for __default_signal_display
    defsig_rtmem_inner.o(.text) refers to defsig_general.o(.text) for __default_signal_display
    defsig_stak_inner.o(.text) refers to defsig_general.o(.text) for __default_signal_display
    defsig_pvfn_inner.o(.text) refers to defsig_general.o(.text) for __default_signal_display
    defsig_cppl_inner.o(.text) refers to defsig_general.o(.text) for __default_signal_display
    defsig_segv_inner.o(.text) refers to defsig_general.o(.text) for __default_signal_display
    defsig_other.o(.text) refers to defsig_general.o(.text) for __default_signal_display


==============================================================================

Removing Unused input sections from the image.

    Removing flash.o(i.SPI_FLASH_Write_Disable), (32 bytes).
    Removing flash.o(i.SPI_FLASH_Write_SR), (40 bytes).
    Removing flash.o(i.SPI_Flash_Erase_Chip), (44 bytes).
    Removing flash.o(i.SPI_Flash_PowerDown), (40 bytes).
    Removing flash.o(i.SPI_Flash_WAKEUP), (40 bytes).
    Removing sram.o(i.FSMC_SRAM_Init), (352 bytes).
    Removing sram.o(i.FSMC_SRAM_ReadBuffer), (22 bytes).
    Removing sram.o(i.FSMC_SRAM_WriteBuffer), (24 bytes).
    Removing sram.o(i.fsmc_sram_test_read), (20 bytes).
    Removing sram.o(i.fsmc_sram_test_write), (16 bytes).
    Removing timer.o(i.TIM3_Int_Init), (80 bytes).
    Removing timer.o(i.TIM3_PWM_Init), (164 bytes).
    Removing timer.o(i.TIM4_PWM_Init), (136 bytes).
    Removing timer.o(i.TIM5_Cap_Init), (188 bytes).
    Removing timer.o(i.TIM6_Int_Init), (68 bytes).
    Removing mmc_sd.o(i.SD_GetCID), (42 bytes).
    Removing malloc.o(i.mymemcpy), (26 bytes).
    Removing malloc.o(i.myrealloc), (68 bytes).
    Removing delay.o(i.delay_us), (60 bytes).
    Removing sys.o(.emb_text), (12 bytes).
    Removing sys.o(i.JTAG_Set), (48 bytes).
    Removing sys.o(i.Sys_Soft_Reset), (16 bytes).
    Removing sys.o(i.Sys_Standby), (76 bytes).
    Removing usart.o(i.uart1_tx), (28 bytes).
    Removing hw_config.o(i.Enter_LowPowerMode), (12 bytes).
    Removing hw_config.o(i.Leave_LowPowerMode), (32 bytes).
    Removing hw_config.o(i.MAL_Config), (10 bytes).
    Removing hw_config.o(i.USB_Configured_LED), (2 bytes).
    Removing hw_config.o(i.USB_Disconnect_Config), (2 bytes).
    Removing mass_mal.o(i.MAL_Init), (26 bytes).
    Removing msd.o(i.MSD_GetDataResponse), (76 bytes).
    Removing msd.o(i.MSD_GetResponse), (34 bytes).
    Removing msd.o(i.MSD_GetStatus), (60 bytes).
    Removing msd.o(i.MSD_GoIdleState), (104 bytes).
    Removing msd.o(i.MSD_Init), (116 bytes).
    Removing msd.o(i.MSD_ReadBuffer2), (140 bytes).
    Removing msd.o(i.MSD_ReadByte), (76 bytes).
    Removing msd.o(i.MSD_SendCmd), (66 bytes).
    Removing msd.o(i.MSD_WriteBuffer1), (260 bytes).
    Removing msd.o(i.MSD_WriteByte), (72 bytes).
    Removing usb_pwr.o(i.PowerOff), (32 bytes).
    Removing usb_pwr.o(i.Resume), (176 bytes).
    Removing usb_pwr.o(i.Resume_Init), (36 bytes).
    Removing usb_pwr.o(i.Suspend), (40 bytes).
    Removing usb_scsi.o(i.SCSI_Valid_Cmd), (52 bytes).
    Removing usb_regs.o(i.ClearEPDoubleBuff), (32 bytes).
    Removing usb_regs.o(i.ClearEP_CTR_RX), (36 bytes).
    Removing usb_regs.o(i.ClearEP_CTR_TX), (32 bytes).
    Removing usb_regs.o(i.ClearEP_KIND), (32 bytes).
    Removing usb_regs.o(i.FreeUserBuffer), (80 bytes).
    Removing usb_regs.o(i.GetBTABLE), (12 bytes).
    Removing usb_regs.o(i.GetCNTR), (12 bytes).
    Removing usb_regs.o(i.GetDADDR), (12 bytes).
    Removing usb_regs.o(i.GetENDPOINT), (20 bytes).
    Removing usb_regs.o(i.GetEPAddress), (24 bytes).
    Removing usb_regs.o(i.GetEPDblBuf0Addr), (32 bytes).
    Removing usb_regs.o(i.GetEPDblBuf0Count), (36 bytes).
    Removing usb_regs.o(i.GetEPDblBuf1Addr), (32 bytes).
    Removing usb_regs.o(i.GetEPDblBuf1Count), (36 bytes).
    Removing usb_regs.o(i.GetEPDblBufDir), (72 bytes).
    Removing usb_regs.o(i.GetEPRxStatus), (24 bytes).
    Removing usb_regs.o(i.GetEPTxCount), (36 bytes).
    Removing usb_regs.o(i.GetEPTxStatus), (24 bytes).
    Removing usb_regs.o(i.GetEPType), (24 bytes).
    Removing usb_regs.o(i.GetFNR), (12 bytes).
    Removing usb_regs.o(i.GetISTR), (12 bytes).
    Removing usb_regs.o(i.GetRxStallStatus), (36 bytes).
    Removing usb_regs.o(i.GetTxStallStatus), (32 bytes).
    Removing usb_regs.o(i.SetCNTR), (12 bytes).
    Removing usb_regs.o(i.SetDADDR), (12 bytes).
    Removing usb_regs.o(i.SetDouBleBuffEPStall), (60 bytes).
    Removing usb_regs.o(i.SetENDPOINT), (16 bytes).
    Removing usb_regs.o(i.SetEPAddress), (36 bytes).
    Removing usb_regs.o(i.SetEPCountRxReg), (48 bytes).
    Removing usb_regs.o(i.SetEPDblBuf0Addr), (32 bytes).
    Removing usb_regs.o(i.SetEPDblBuf0Count), (104 bytes).
    Removing usb_regs.o(i.SetEPDblBuf1Addr), (36 bytes).
    Removing usb_regs.o(i.SetEPDblBuf1Count), (104 bytes).
    Removing usb_regs.o(i.SetEPDblBuffAddr), (52 bytes).
    Removing usb_regs.o(i.SetEPDblBuffCount), (196 bytes).
    Removing usb_regs.o(i.SetEPDoubleBuff), (36 bytes).
    Removing usb_regs.o(i.SetEPTxValid), (44 bytes).
    Removing usb_regs.o(i.SetEP_KIND), (36 bytes).
    Removing usb_regs.o(i.SetISTR), (12 bytes).
    Removing usb_regs.o(i.Set_Status_Out), (36 bytes).
    Removing usb_regs.o(i.ToWord), (8 bytes).
    Removing usb_regs.o(i.ToggleDTOG_RX), (36 bytes).
    Removing usb_regs.o(i.ToggleDTOG_TX), (36 bytes).
    Removing exfuns.o(i.char_upper), (26 bytes).
    Removing exfuns.o(i.exf_getfree), (74 bytes).
    Removing exfuns.o(i.f_typetell), (192 bytes).
    Removing exfuns.o(.bss), (68 bytes).
    Removing ff.o(i.dir_remove), (96 bytes).
    Removing ff.o(i.f_chmod), (112 bytes).
    Removing ff.o(i.f_getfree), (260 bytes).
    Removing ff.o(i.f_gets), (78 bytes).
    Removing ff.o(i.f_mkdir), (384 bytes).
    Removing ff.o(i.f_mkfs), (1588 bytes).
    Removing ff.o(i.f_printf), (700 bytes).
    Removing ff.o(i.f_putc), (38 bytes).
    Removing ff.o(i.f_puts), (42 bytes).
    Removing ff.o(i.f_rename), (302 bytes).
    Removing ff.o(i.f_stat), (82 bytes).
    Removing ff.o(i.f_truncate), (160 bytes).
    Removing ff.o(i.f_unlink), (192 bytes).
    Removing ff.o(i.f_utime), (110 bytes).
    Removing fontupd.o(i.font_init), (64 bytes).
    Removing fontupd.o(.data), (4 bytes).

108 unused section(s) (total 9290 bytes) removed from the image.

==============================================================================

Image Symbol Table

    Local Symbols

    Symbol Name                              Value     Ov Type        Size  Object(Section)

    ../clib/angel/boardlib.s                 0x00000000   Number         0  boardshut.o ABSOLUTE
    ../clib/angel/boardlib.s                 0x00000000   Number         0  boardinit1.o ABSOLUTE
    ../clib/angel/boardlib.s                 0x00000000   Number         0  boardinit2.o ABSOLUTE
    ../clib/angel/boardlib.s                 0x00000000   Number         0  boardinit3.o ABSOLUTE
    ../clib/angel/dczerorl2.s                0x00000000   Number         0  __dczerorl2.o ABSOLUTE
    ../clib/angel/handlers.s                 0x00000000   Number         0  __scatter_zi.o ABSOLUTE
    ../clib/angel/kernel.s                   0x00000000   Number         0  __rtentry.o ABSOLUTE
    ../clib/angel/kernel.s                   0x00000000   Number         0  rtexit2.o ABSOLUTE
    ../clib/angel/kernel.s                   0x00000000   Number         0  __rtentry4.o ABSOLUTE
    ../clib/angel/kernel.s                   0x00000000   Number         0  rtexit.o ABSOLUTE
    ../clib/angel/kernel.s                   0x00000000   Number         0  __rtentry2.o ABSOLUTE
    ../clib/angel/rt.s                       0x00000000   Number         0  aeabi_ldiv0_sigfpe.o ABSOLUTE
    ../clib/angel/rt.s                       0x00000000   Number         0  rt_div0.o ABSOLUTE
    ../clib/angel/rt.s                       0x00000000   Number         0  aeabi_ldiv0.o ABSOLUTE
    ../clib/angel/rt.s                       0x00000000   Number         0  rt_raise.o ABSOLUTE
    ../clib/angel/scatter.s                  0x00000000   Number         0  __scatter.o ABSOLUTE
    ../clib/angel/startup.s                  0x00000000   Number         0  __main.o ABSOLUTE
    ../clib/angel/sys.s                      0x00000000   Number         0  use_no_semi.o ABSOLUTE
    ../clib/angel/sys.s                      0x00000000   Number         0  sys_stackheap_outer.o ABSOLUTE
    ../clib/angel/sys.s                      0x00000000   Number         0  indicate_semi.o ABSOLUTE
    ../clib/angel/sys.s                      0x00000000   Number         0  libspace.o ABSOLUTE
    ../clib/angel/sys.s                      0x00000000   Number         0  use_no_semi_2.o ABSOLUTE
    ../clib/angel/sysapp.c                   0x00000000   Number         0  sys_wrch.o ABSOLUTE
    ../clib/angel/sysapp.c                   0x00000000   Number         0  sys_command.o ABSOLUTE
    ../clib/armsys.c                         0x00000000   Number         0  no_argv.o ABSOLUTE
    ../clib/armsys.c                         0x00000000   Number         0  _get_argv_nomalloc.o ABSOLUTE
    ../clib/armsys.c                         0x00000000   Number         0  argv_veneer.o ABSOLUTE
    ../clib/armsys.c                         0x00000000   Number         0  argv_veneer.o ABSOLUTE
    ../clib/heapalloc.c                      0x00000000   Number         0  hrguard.o ABSOLUTE
    ../clib/heapaux.c                        0x00000000   Number         0  heapauxi.o ABSOLUTE
    ../clib/libinit.s                        0x00000000   Number         0  libshutdown.o ABSOLUTE
    ../clib/libinit.s                        0x00000000   Number         0  libinit.o ABSOLUTE
    ../clib/libinit.s                        0x00000000   Number         0  libshutdown2.o ABSOLUTE
    ../clib/libinit.s                        0x00000000   Number         0  libinit2.o ABSOLUTE
    ../clib/longlong.s                       0x00000000   Number         0  lludivv7m.o ABSOLUTE
    ../clib/longlong.s                       0x00000000   Number         0  llsdiv.o ABSOLUTE
    ../clib/memcpset.s                       0x00000000   Number         0  rt_memcpy_w.o ABSOLUTE
    ../clib/memcpset.s                       0x00000000   Number         0  strcmpv7m.o ABSOLUTE
    ../clib/memcpset.s                       0x00000000   Number         0  rt_memcpy_v6.o ABSOLUTE
    ../clib/printf.c                         0x00000000   Number         0  _printf_hex_ptr.o ABSOLUTE
    ../clib/printf.c                         0x00000000   Number         0  _printf_intcommon.o ABSOLUTE
    ../clib/printf.c                         0x00000000   Number         0  __printf_wp.o ABSOLUTE
    ../clib/printf.c                         0x00000000   Number         0  __printf_flags_wp.o ABSOLUTE
    ../clib/printf.c                         0x00000000   Number         0  _printf_dec.o ABSOLUTE
    ../clib/printf.c                         0x00000000   Number         0  __printf_ss_wp.o ABSOLUTE
    ../clib/printf.c                         0x00000000   Number         0  __printf_nopercent.o ABSOLUTE
    ../clib/printf.c                         0x00000000   Number         0  _printf_char_common.o ABSOLUTE
    ../clib/printf.c                         0x00000000   Number         0  __printf_flags_ss_wp.o ABSOLUTE
    ../clib/printf.c                         0x00000000   Number         0  _printf_hex_int_ptr.o ABSOLUTE
    ../clib/printf.c                         0x00000000   Number         0  _printf_hex_int_ll.o ABSOLUTE
    ../clib/printf.c                         0x00000000   Number         0  _printf_hex_ll_ptr.o ABSOLUTE
    ../clib/printf.c                         0x00000000   Number         0  _printf_hex_int.o ABSOLUTE
    ../clib/printf.c                         0x00000000   Number         0  __printf_flags_ss.o ABSOLUTE
    ../clib/printf.c                         0x00000000   Number         0  _printf_hex_int_ll_ptr.o ABSOLUTE
    ../clib/printf.c                         0x00000000   Number         0  _printf_hex_ll.o ABSOLUTE
    ../clib/printf.c                         0x00000000   Number         0  __printf.o ABSOLUTE
    ../clib/printf.c                         0x00000000   Number         0  noretval__2printf.o ABSOLUTE
    ../clib/printf.c                         0x00000000   Number         0  __2printf.o ABSOLUTE
    ../clib/printf.c                         0x00000000   Number         0  __printf_flags.o ABSOLUTE
    ../clib/printf.c                         0x00000000   Number         0  _printf_char_file.o ABSOLUTE
    ../clib/printf.c                         0x00000000   Number         0  __printf_ss.o ABSOLUTE
    ../clib/printf_percent.s                 0x00000000   Number         0  _printf_d.o ABSOLUTE
    ../clib/printf_percent.s                 0x00000000   Number         0  _printf_x.o ABSOLUTE
    ../clib/printf_percent.s                 0x00000000   Number         0  _printf_percent_end.o ABSOLUTE
    ../clib/printf_percent.s                 0x00000000   Number         0  _printf_percent.o ABSOLUTE
    ../clib/signal.c                         0x00000000   Number         0  defsig_general.o ABSOLUTE
    ../clib/signal.c                         0x00000000   Number         0  __raise.o ABSOLUTE
    ../clib/signal.c                         0x00000000   Number         0  defsig_fpe_inner.o ABSOLUTE
    ../clib/signal.c                         0x00000000   Number         0  defsig_exit.o ABSOLUTE
    ../clib/signal.c                         0x00000000   Number         0  defsig_other.o ABSOLUTE
    ../clib/signal.c                         0x00000000   Number         0  defsig_segv_inner.o ABSOLUTE
    ../clib/signal.c                         0x00000000   Number         0  defsig_cppl_inner.o ABSOLUTE
    ../clib/signal.c                         0x00000000   Number         0  defsig_pvfn_inner.o ABSOLUTE
    ../clib/signal.c                         0x00000000   Number         0  defsig_stak_inner.o ABSOLUTE
    ../clib/signal.c                         0x00000000   Number         0  defsig_fpe_outer.o ABSOLUTE
    ../clib/signal.c                         0x00000000   Number         0  defsig_rtmem_inner.o ABSOLUTE
    ../clib/signal.c                         0x00000000   Number         0  defsig_abrt_inner.o ABSOLUTE
    ../clib/signal.c                         0x00000000   Number         0  defsig_fpe_formal.o ABSOLUTE
    ../clib/signal.c                         0x00000000   Number         0  defsig_rtmem_formal.o ABSOLUTE
    ../clib/signal.c                         0x00000000   Number         0  defsig_rtmem_outer.o ABSOLUTE
    ../clib/signal.c                         0x00000000   Number         0  defsig_rtred_inner.o ABSOLUTE
    ../clib/signal.s                         0x00000000   Number         0  defsig.o ABSOLUTE
    ../clib/stdio.c                          0x00000000   Number         0  ferror.o ABSOLUTE
    ../clib/stdio.c                          0x00000000   Number         0  ferror_locked.o ABSOLUTE
    ../clib/stdlib.c                         0x00000000   Number         0  exit.o ABSOLUTE
    ../clib/string.c                         0x00000000   Number         0  memcmp.o ABSOLUTE
    ../clib/string.c                         0x00000000   Number         0  strcpy.o ABSOLUTE
    ../fplib/faddsub.s                       0x00000000   Number         0  faddsub_clz.o ABSOLUTE
    ../fplib/fdiv.s                          0x00000000   Number         0  fdiv.o ABSOLUTE
    ../fplib/ffixu.s                         0x00000000   Number         0  ffixu.o ABSOLUTE
    ../fplib/fflt.s                          0x00000000   Number         0  fflt_clz.o ABSOLUTE
    ../fplib/fmul.s                          0x00000000   Number         0  fmul.o ABSOLUTE
    ../fplib/fnaninf.s                       0x00000000   Number         0  fnaninf.o ABSOLUTE
    ../fplib/fpinit.s                        0x00000000   Number         0  fpinit.o ABSOLUTE
    ../fplib/fretinf.s                       0x00000000   Number         0  fretinf.o ABSOLUTE
    ../fplib/usenofp.s                       0x00000000   Number         0  usenofp.o ABSOLUTE
    ..\\source\\system\\sys.c                0x00000000   Number         0  sys.o ABSOLUTE
    ..\source\app\lower.c                    0x00000000   Number         0  lower.o ABSOLUTE
    ..\source\driver\MMC_SD.C                0x00000000   Number         0  mmc_sd.o ABSOLUTE
    ..\source\driver\exti.c                  0x00000000   Number         0  exti.o ABSOLUTE
    ..\source\driver\flash.c                 0x00000000   Number         0  flash.o ABSOLUTE
    ..\source\driver\led.c                   0x00000000   Number         0  led.o ABSOLUTE
    ..\source\driver\power_control.c         0x00000000   Number         0  power_control.o ABSOLUTE
    ..\source\driver\spi.c                   0x00000000   Number         0  spi.o ABSOLUTE
    ..\source\driver\sram.c                  0x00000000   Number         0  sram.o ABSOLUTE
    ..\source\driver\timer.c                 0x00000000   Number         0  timer.o ABSOLUTE
    ..\source\entry\startup_stm32f10x_hd.s   0x00000000   Number         0  startup_stm32f10x_hd.o ABSOLUTE
    ..\source\fatfs\diskio.c                 0x00000000   Number         0  diskio.o ABSOLUTE
    ..\source\fatfs\exfuns.c                 0x00000000   Number         0  exfuns.o ABSOLUTE
    ..\source\fatfs\ff.c                     0x00000000   Number         0  ff.o ABSOLUTE
    ..\source\fatfs\mycc936.c                0x00000000   Number         0  mycc936.o ABSOLUTE
    ..\source\main\main.c                    0x00000000   Number         0  main.o ABSOLUTE
    ..\source\malloc\malloc.c                0x00000000   Number         0  malloc.o ABSOLUTE
    ..\source\system\delay.c                 0x00000000   Number         0  delay.o ABSOLUTE
    ..\source\system\sys.c                   0x00000000   Number         0  sys.o ABSOLUTE
    ..\source\system\usart.c                 0x00000000   Number         0  usart.o ABSOLUTE
    ..\source\text\fontupd.c                 0x00000000   Number         0  fontupd.o ABSOLUTE
    ..\source\usb\config\hw_config.c         0x00000000   Number         0  hw_config.o ABSOLUTE
    ..\source\usb\config\mass_mal.c          0x00000000   Number         0  mass_mal.o ABSOLUTE
    ..\source\usb\config\memory.c            0x00000000   Number         0  memory.o ABSOLUTE
    ..\source\usb\config\msd.c               0x00000000   Number         0  msd.o ABSOLUTE
    ..\source\usb\config\scsi_data.c         0x00000000   Number         0  scsi_data.o ABSOLUTE
    ..\source\usb\config\stm32f10x_it.c      0x00000000   Number         0  stm32f10x_it.o ABSOLUTE
    ..\source\usb\config\usb_bot.c           0x00000000   Number         0  usb_bot.o ABSOLUTE
    ..\source\usb\config\usb_desc.c          0x00000000   Number         0  usb_desc.o ABSOLUTE
    ..\source\usb\config\usb_endp.c          0x00000000   Number         0  usb_endp.o ABSOLUTE
    ..\source\usb\config\usb_istr.c          0x00000000   Number         0  usb_istr.o ABSOLUTE
    ..\source\usb\config\usb_prop.c          0x00000000   Number         0  usb_prop.o ABSOLUTE
    ..\source\usb\config\usb_pwr.c           0x00000000   Number         0  usb_pwr.o ABSOLUTE
    ..\source\usb\config\usb_scsi.c          0x00000000   Number         0  usb_scsi.o ABSOLUTE
    ..\source\usb\lib\usb_core.c             0x00000000   Number         0  usb_core.o ABSOLUTE
    ..\source\usb\lib\usb_init.c             0x00000000   Number         0  usb_init.o ABSOLUTE
    ..\source\usb\lib\usb_int.c              0x00000000   Number         0  usb_int.o ABSOLUTE
    ..\source\usb\lib\usb_mem.c              0x00000000   Number         0  usb_mem.o ABSOLUTE
    ..\source\usb\lib\usb_regs.c             0x00000000   Number         0  usb_regs.o ABSOLUTE
    dc.s                                     0x00000000   Number         0  dc.o ABSOLUTE
    RESET                                    0x08000000   Section      304  startup_stm32f10x_hd.o(RESET)
    !!!main                                  0x08000130   Section        8  __main.o(!!!main)
    !!!scatter                               0x08000138   Section       52  __scatter.o(!!!scatter)
    !!dczerorl2                              0x0800016c   Section       90  __dczerorl2.o(!!dczerorl2)
    !!handler_zi                             0x080001c8   Section       28  __scatter_zi.o(!!handler_zi)
    .ARM.Collect$$_printf_percent$$00000000  0x080001e4   Section        0  _printf_percent.o(.ARM.Collect$$_printf_percent$$00000000)
    .ARM.Collect$$_printf_percent$$00000009  0x080001e4   Section        6  _printf_d.o(.ARM.Collect$$_printf_percent$$00000009)
    .ARM.Collect$$_printf_percent$$0000000C  0x080001ea   Section        6  _printf_x.o(.ARM.Collect$$_printf_percent$$0000000C)
    .ARM.Collect$$_printf_percent$$00000017  0x080001f0   Section        4  _printf_percent_end.o(.ARM.Collect$$_printf_percent$$00000017)
    .ARM.Collect$$libinit$$00000000          0x080001f4   Section        2  libinit.o(.ARM.Collect$$libinit$$00000000)
    .ARM.Collect$$libinit$$00000002          0x080001f6   Section        0  libinit2.o(.ARM.Collect$$libinit$$00000002)
    .ARM.Collect$$libinit$$00000004          0x080001f6   Section        0  libinit2.o(.ARM.Collect$$libinit$$00000004)
    .ARM.Collect$$libinit$$0000000A          0x080001f6   Section        0  libinit2.o(.ARM.Collect$$libinit$$0000000A)
    .ARM.Collect$$libinit$$0000000C          0x080001f6   Section        0  libinit2.o(.ARM.Collect$$libinit$$0000000C)
    .ARM.Collect$$libinit$$0000000E          0x080001f6   Section        0  libinit2.o(.ARM.Collect$$libinit$$0000000E)
    .ARM.Collect$$libinit$$00000011          0x080001f6   Section        0  libinit2.o(.ARM.Collect$$libinit$$00000011)
    .ARM.Collect$$libinit$$00000013          0x080001f6   Section        0  libinit2.o(.ARM.Collect$$libinit$$00000013)
    .ARM.Collect$$libinit$$00000015          0x080001f6   Section        0  libinit2.o(.ARM.Collect$$libinit$$00000015)
    .ARM.Collect$$libinit$$00000017          0x080001f6   Section        0  libinit2.o(.ARM.Collect$$libinit$$00000017)
    .ARM.Collect$$libinit$$00000019          0x080001f6   Section        0  libinit2.o(.ARM.Collect$$libinit$$00000019)
    .ARM.Collect$$libinit$$0000001B          0x080001f6   Section        0  libinit2.o(.ARM.Collect$$libinit$$0000001B)
    .ARM.Collect$$libinit$$0000001D          0x080001f6   Section        0  libinit2.o(.ARM.Collect$$libinit$$0000001D)
    .ARM.Collect$$libinit$$0000001F          0x080001f6   Section        0  libinit2.o(.ARM.Collect$$libinit$$0000001F)
    .ARM.Collect$$libinit$$00000021          0x080001f6   Section        0  libinit2.o(.ARM.Collect$$libinit$$00000021)
    .ARM.Collect$$libinit$$00000023          0x080001f6   Section        0  libinit2.o(.ARM.Collect$$libinit$$00000023)
    .ARM.Collect$$libinit$$00000025          0x080001f6   Section        0  libinit2.o(.ARM.Collect$$libinit$$00000025)
    .ARM.Collect$$libinit$$0000002C          0x080001f6   Section        0  libinit2.o(.ARM.Collect$$libinit$$0000002C)
    .ARM.Collect$$libinit$$0000002E          0x080001f6   Section        0  libinit2.o(.ARM.Collect$$libinit$$0000002E)
    .ARM.Collect$$libinit$$00000030          0x080001f6   Section        0  libinit2.o(.ARM.Collect$$libinit$$00000030)
    .ARM.Collect$$libinit$$00000032          0x080001f6   Section        0  libinit2.o(.ARM.Collect$$libinit$$00000032)
    .ARM.Collect$$libinit$$00000033          0x080001f6   Section        2  libinit2.o(.ARM.Collect$$libinit$$00000033)
    .ARM.Collect$$libshutdown$$00000000      0x080001f8   Section        2  libshutdown.o(.ARM.Collect$$libshutdown$$00000000)
    .ARM.Collect$$libshutdown$$00000002      0x080001fa   Section        0  libshutdown2.o(.ARM.Collect$$libshutdown$$00000002)
    .ARM.Collect$$libshutdown$$00000004      0x080001fa   Section        0  libshutdown2.o(.ARM.Collect$$libshutdown$$00000004)
    .ARM.Collect$$libshutdown$$00000007      0x080001fa   Section        0  libshutdown2.o(.ARM.Collect$$libshutdown$$00000007)
    .ARM.Collect$$libshutdown$$0000000A      0x080001fa   Section        0  libshutdown2.o(.ARM.Collect$$libshutdown$$0000000A)
    .ARM.Collect$$libshutdown$$0000000C      0x080001fa   Section        0  libshutdown2.o(.ARM.Collect$$libshutdown$$0000000C)
    .ARM.Collect$$libshutdown$$0000000F      0x080001fa   Section        0  libshutdown2.o(.ARM.Collect$$libshutdown$$0000000F)
    .ARM.Collect$$libshutdown$$00000010      0x080001fa   Section        2  libshutdown2.o(.ARM.Collect$$libshutdown$$00000010)
    .ARM.Collect$$rtentry$$00000000          0x080001fc   Section        0  __rtentry.o(.ARM.Collect$$rtentry$$00000000)
    .ARM.Collect$$rtentry$$00000002          0x080001fc   Section        0  __rtentry2.o(.ARM.Collect$$rtentry$$00000002)
    .ARM.Collect$$rtentry$$00000004          0x080001fc   Section        6  __rtentry4.o(.ARM.Collect$$rtentry$$00000004)
    .ARM.Collect$$rtentry$$00000009          0x08000202   Section        0  __rtentry2.o(.ARM.Collect$$rtentry$$00000009)
    .ARM.Collect$$rtentry$$0000000A          0x08000202   Section        4  __rtentry2.o(.ARM.Collect$$rtentry$$0000000A)
    .ARM.Collect$$rtentry$$0000000C          0x08000206   Section        0  __rtentry2.o(.ARM.Collect$$rtentry$$0000000C)
    .ARM.Collect$$rtentry$$0000000D          0x08000206   Section        8  __rtentry2.o(.ARM.Collect$$rtentry$$0000000D)
    .ARM.Collect$$rtexit$$00000000           0x0800020e   Section        2  rtexit.o(.ARM.Collect$$rtexit$$00000000)
    .ARM.Collect$$rtexit$$00000002           0x08000210   Section        0  rtexit2.o(.ARM.Collect$$rtexit$$00000002)
    .ARM.Collect$$rtexit$$00000003           0x08000210   Section        4  rtexit2.o(.ARM.Collect$$rtexit$$00000003)
    .ARM.Collect$$rtexit$$00000004           0x08000214   Section        6  rtexit2.o(.ARM.Collect$$rtexit$$00000004)
    .text                                    0x0800021c   Section       72  startup_stm32f10x_hd.o(.text)
    .text                                    0x08000264   Section        2  use_no_semi_2.o(.text)
    .text                                    0x08000266   Section       72  llsdiv.o(.text)
    .text                                    0x080002b0   Section        0  noretval__2printf.o(.text)
    .text                                    0x080002c8   Section        0  __printf.o(.text)
    .text                                    0x08000330   Section        0  _printf_dec.o(.text)
    .text                                    0x080003a8   Section        0  _printf_hex_int.o(.text)
    .text                                    0x08000400   Section        0  memcmp.o(.text)
    .text                                    0x08000458   Section      138  rt_memcpy_v6.o(.text)
    .text                                    0x080004e2   Section        0  heapauxi.o(.text)
    .text                                    0x080004e8   Section        2  use_no_semi.o(.text)
    .text                                    0x080004ea   Section      238  lludivv7m.o(.text)
    .text                                    0x080005d8   Section        0  _printf_intcommon.o(.text)
    .text                                    0x0800068c   Section        0  _printf_char_file.o(.text)
    .text                                    0x080006b0   Section      100  rt_memcpy_w.o(.text)
    .text                                    0x08000714   Section        0  _printf_char_common.o(.text)
    _printf_input_char                       0x08000715   Thumb Code    10  _printf_char_common.o(.text)
    .text                                    0x08000744   Section        0  ferror.o(.text)
    .text                                    0x0800074c   Section       74  sys_stackheap_outer.o(.text)
    .text                                    0x08000796   Section        0  exit.o(.text)
    .text                                    0x080007a8   Section        8  libspace.o(.text)
    i.Bot_Abort                              0x080007b0   Section        0  usb_bot.o(i.Bot_Abort)
    i.ByteSwap                               0x080007f0   Section        0  usb_regs.o(i.ByteSwap)
    i.CBW_Decode                             0x080007fc   Section        0  usb_bot.o(i.CBW_Decode)
    i.CTR_HP                                 0x08000ac0   Section        0  usb_int.o(i.CTR_HP)
    i.CTR_LP                                 0x08000b88   Section        0  usb_int.o(i.CTR_LP)
    i.ClearDTOG_RX                           0x08000eb0   Section        0  usb_regs.o(i.ClearDTOG_RX)
    i.ClearDTOG_TX                           0x08000ee4   Section        0  usb_regs.o(i.ClearDTOG_TX)
    i.Clear_Status_Out                       0x08000f18   Section        0  usb_regs.o(i.Clear_Status_Out)
    i.DataStageIn                            0x08000f38   Section        0  usb_core.o(i.DataStageIn)
    DataStageIn                              0x08000f39   Thumb Code   166  usb_core.o(i.DataStageIn)
    i.DataStageOut                           0x08000ff8   Section        0  usb_core.o(i.DataStageOut)
    DataStageOut                             0x08000ff9   Thumb Code   166  usb_core.o(i.DataStageOut)
    i.Data_Setup0                            0x080010b4   Section        0  usb_core.o(i.Data_Setup0)
    Data_Setup0                              0x080010b5   Thumb Code   628  usb_core.o(i.Data_Setup0)
    i.EP1_IN_Callback                        0x0800134c   Section        0  usb_endp.o(i.EP1_IN_Callback)
    i.EP2_OUT_Callback                       0x08001354   Section        0  usb_endp.o(i.EP2_OUT_Callback)
    i.EXTI3_IRQHandler                       0x0800135c   Section        0  exti.o(i.EXTI3_IRQHandler)
    i.EXTI4_IRQHandler                       0x08001384   Section        0  exti.o(i.EXTI4_IRQHandler)
    i.EXTI9_5_IRQHandler                     0x080013ac   Section        0  exti.o(i.EXTI9_5_IRQHandler)
    i.EXTIX_Init                             0x080013d4   Section        0  exti.o(i.EXTIX_Init)
    i.Ex_NVIC_Config                         0x08001460   Section        0  sys.o(i.Ex_NVIC_Config)
    i.GetEPRxAddr                            0x08001500   Section        0  usb_regs.o(i.GetEPRxAddr)
    i.GetEPRxCount                           0x08001520   Section        0  usb_regs.o(i.GetEPRxCount)
    i.GetEPTxAddr                            0x08001544   Section        0  usb_regs.o(i.GetEPTxAddr)
    i.Get_Max_Lun                            0x08001564   Section        0  usb_prop.o(i.Get_Max_Lun)
    i.Get_SerialNum                          0x08001580   Section        0  hw_config.o(i.Get_SerialNum)
    i.In0_Process                            0x080015c8   Section        0  usb_core.o(i.In0_Process)
    i.LED_Init                               0x08001638   Section        0  led.o(i.LED_Init)
    i.Led_RW_OFF                             0x08001674   Section        0  hw_config.o(i.Led_RW_OFF)
    i.Led_RW_ON                              0x08001680   Section        0  hw_config.o(i.Led_RW_ON)
    i.MAL_GetStatus                          0x0800168c   Section        0  mass_mal.o(i.MAL_GetStatus)
    i.MAL_Read                               0x080016aa   Section        0  mass_mal.o(i.MAL_Read)
    i.MAL_Write                              0x080016ec   Section        0  mass_mal.o(i.MAL_Write)
    i.MASS_Data_Setup                        0x08001730   Section        0  usb_prop.o(i.MASS_Data_Setup)
    i.MASS_GetConfigDescriptor               0x08001790   Section        0  usb_prop.o(i.MASS_GetConfigDescriptor)
    i.MASS_GetDeviceDescriptor               0x080017a4   Section        0  usb_prop.o(i.MASS_GetDeviceDescriptor)
    i.MASS_GetStringDescriptor               0x080017b8   Section        0  usb_prop.o(i.MASS_GetStringDescriptor)
    i.MASS_Get_Interface_Setting             0x080017e0   Section        0  usb_prop.o(i.MASS_Get_Interface_Setting)
    i.MASS_NoData_Setup                      0x080017f8   Section        0  usb_prop.o(i.MASS_NoData_Setup)
    i.MASS_Reset                             0x08001854   Section        0  usb_prop.o(i.MASS_Reset)
    i.MASS_Status_In                         0x08001944   Section        0  usb_prop.o(i.MASS_Status_In)
    i.MASS_Status_Out                        0x08001946   Section        0  usb_prop.o(i.MASS_Status_Out)
    i.MASS_init                              0x08001948   Section        0  usb_prop.o(i.MASS_init)
    i.MYRCC_DeInit                           0x0800198c   Section        0  sys.o(i.MYRCC_DeInit)
    i.MY_NVIC_Init                           0x080019f4   Section        0  sys.o(i.MY_NVIC_Init)
    i.MY_NVIC_PriorityGroupConfig            0x08001a8c   Section        0  sys.o(i.MY_NVIC_PriorityGroupConfig)
    i.MY_NVIC_SetVectorTable                 0x08001ab4   Section        0  sys.o(i.MY_NVIC_SetVectorTable)
    i.Mass_Storage_ClearFeature              0x08001ac8   Section        0  usb_prop.o(i.Mass_Storage_ClearFeature)
    i.Mass_Storage_In                        0x08001ae4   Section        0  usb_bot.o(i.Mass_Storage_In)
    i.Mass_Storage_Out                       0x08001b74   Section        0  usb_bot.o(i.Mass_Storage_Out)
    i.Mass_Storage_SetConfiguration          0x08001c28   Section        0  usb_prop.o(i.Mass_Storage_SetConfiguration)
    i.Mass_Storage_SetDeviceAddress          0x08001c58   Section        0  usb_prop.o(i.Mass_Storage_SetDeviceAddress)
    i.NOP_Process                            0x08001c64   Section        0  usb_core.o(i.NOP_Process)
    i.NoData_Setup0                          0x08001c68   Section        0  usb_core.o(i.NoData_Setup0)
    NoData_Setup0                            0x08001c69   Thumb Code   302  usb_core.o(i.NoData_Setup0)
    i.Out0_Process                           0x08001dac   Section        0  usb_core.o(i.Out0_Process)
    i.PMAToUserBufferCopy                    0x08001dfc   Section        0  usb_mem.o(i.PMAToUserBufferCopy)
    i.Post0_Process                          0x08001e24   Section        0  usb_core.o(i.Post0_Process)
    i.PowerOn                                0x08001e6c   Section        0  usb_pwr.o(i.PowerOn)
    i.Read_Memory                            0x08001eac   Section        0  memory.o(i.Read_Memory)
    i.SCSI_Address_Management                0x08001fd0   Section        0  usb_scsi.o(i.SCSI_Address_Management)
    i.SCSI_Format_Cmd                        0x0800205c   Section        0  usb_scsi.o(i.SCSI_Format_Cmd)
    i.SCSI_Inquiry_Cmd                       0x0800208c   Section        0  usb_scsi.o(i.SCSI_Inquiry_Cmd)
    i.SCSI_Invalid_Cmd                       0x080020d4   Section        0  usb_scsi.o(i.SCSI_Invalid_Cmd)
    i.SCSI_ModeSense10_Cmd                   0x08002118   Section        0  usb_scsi.o(i.SCSI_ModeSense10_Cmd)
    i.SCSI_ModeSense6_Cmd                    0x0800212c   Section        0  usb_scsi.o(i.SCSI_ModeSense6_Cmd)
    i.SCSI_Read10_Cmd                        0x08002140   Section        0  usb_scsi.o(i.SCSI_Read10_Cmd)
    i.SCSI_ReadCapacity10_Cmd                0x080021b8   Section        0  usb_scsi.o(i.SCSI_ReadCapacity10_Cmd)
    i.SCSI_ReadFormatCapacity_Cmd            0x08002254   Section        0  usb_scsi.o(i.SCSI_ReadFormatCapacity_Cmd)
    i.SCSI_RequestSense_Cmd                  0x080022dc   Section        0  usb_scsi.o(i.SCSI_RequestSense_Cmd)
    i.SCSI_Start_Stop_Unit_Cmd               0x08002304   Section        0  usb_scsi.o(i.SCSI_Start_Stop_Unit_Cmd)
    i.SCSI_TestUnitReady_Cmd                 0x08002314   Section        0  usb_scsi.o(i.SCSI_TestUnitReady_Cmd)
    i.SCSI_Verify10_Cmd                      0x0800234c   Section        0  usb_scsi.o(i.SCSI_Verify10_Cmd)
    i.SCSI_Write10_Cmd                       0x0800238c   Section        0  usb_scsi.o(i.SCSI_Write10_Cmd)
    i.SD_DisSelect                           0x08002404   Section        0  mmc_sd.o(i.SD_DisSelect)
    i.SD_GetCSD                              0x08002418   Section        0  mmc_sd.o(i.SD_GetCSD)
    i.SD_GetResponse                         0x08002442   Section        0  mmc_sd.o(i.SD_GetResponse)
    i.SD_GetSectorCount                      0x08002468   Section        0  mmc_sd.o(i.SD_GetSectorCount)
    i.SD_Initialize                          0x080024e0   Section        0  mmc_sd.o(i.SD_Initialize)
    i.SD_ReadDisk                            0x08002668   Section        0  mmc_sd.o(i.SD_ReadDisk)
    i.SD_RecvData                            0x080026dc   Section        0  mmc_sd.o(i.SD_RecvData)
    i.SD_SPI_Init                            0x08002714   Section        0  mmc_sd.o(i.SD_SPI_Init)
    i.SD_SPI_ReadWriteByte                   0x080027c4   Section        0  mmc_sd.o(i.SD_SPI_ReadWriteByte)
    i.SD_SPI_SpeedHigh                       0x080027d0   Section        0  mmc_sd.o(i.SD_SPI_SpeedHigh)
    i.SD_SPI_SpeedLow                        0x080027da   Section        0  mmc_sd.o(i.SD_SPI_SpeedLow)
    i.SD_Select                              0x080027e4   Section        0  mmc_sd.o(i.SD_Select)
    i.SD_SendBlock                           0x08002804   Section        0  mmc_sd.o(i.SD_SendBlock)
    i.SD_SendCmd                             0x08002856   Section        0  mmc_sd.o(i.SD_SendCmd)
    i.SD_WaitReady                           0x080028ce   Section        0  mmc_sd.o(i.SD_WaitReady)
    i.SD_WriteDisk                           0x080028f0   Section        0  mmc_sd.o(i.SD_WriteDisk)
    i.SPI2_Init                              0x08002980   Section        0  spi.o(i.SPI2_Init)
    i.SPI2_ReadWriteByte                     0x08002a34   Section        0  spi.o(i.SPI2_ReadWriteByte)
    i.SPI2_SetSpeed                          0x08002a8c   Section        0  spi.o(i.SPI2_SetSpeed)
    i.SPI_FLASH_Write_Enable                 0x08002ab8   Section        0  flash.o(i.SPI_FLASH_Write_Enable)
    i.SPI_Flash_Erase_Sector                 0x08002ad8   Section        0  flash.o(i.SPI_Flash_Erase_Sector)
    i.SPI_Flash_Init                         0x08002b30   Section        0  flash.o(i.SPI_Flash_Init)
    i.SPI_Flash_Read                         0x08002be8   Section        0  flash.o(i.SPI_Flash_Read)
    i.SPI_Flash_ReadID                       0x08002c38   Section        0  flash.o(i.SPI_Flash_ReadID)
    i.SPI_Flash_ReadSR                       0x08002c80   Section        0  flash.o(i.SPI_Flash_ReadSR)
    i.SPI_Flash_Wait_Busy                    0x08002cac   Section        0  flash.o(i.SPI_Flash_Wait_Busy)
    i.SPI_Flash_Write                        0x08002cc0   Section        0  flash.o(i.SPI_Flash_Write)
    i.SPI_Flash_Write_NoCheck                0x08002d78   Section        0  flash.o(i.SPI_Flash_Write_NoCheck)
    i.SPI_Flash_Write_Page                   0x08002dc0   Section        0  flash.o(i.SPI_Flash_Write_Page)
    i.SetBTABLE                              0x08002e14   Section        0  usb_regs.o(i.SetBTABLE)
    i.SetDeviceAddress                       0x08002e24   Section        0  usb_core.o(i.SetDeviceAddress)
    i.SetEPRxAddr                            0x08002e70   Section        0  usb_regs.o(i.SetEPRxAddr)
    i.SetEPRxCount                           0x08002e94   Section        0  usb_regs.o(i.SetEPRxCount)
    i.SetEPRxStatus                          0x08002ee0   Section        0  usb_regs.o(i.SetEPRxStatus)
    i.SetEPRxValid                           0x08002f18   Section        0  usb_regs.o(i.SetEPRxValid)
    i.SetEPTxAddr                            0x08002f44   Section        0  usb_regs.o(i.SetEPTxAddr)
    i.SetEPTxCount                           0x08002f64   Section        0  usb_regs.o(i.SetEPTxCount)
    i.SetEPTxStatus                          0x08002f80   Section        0  usb_regs.o(i.SetEPTxStatus)
    i.SetEPType                              0x08002fb8   Section        0  usb_regs.o(i.SetEPType)
    i.Set_CSW                                0x08002fdc   Section        0  usb_bot.o(i.Set_CSW)
    i.Set_Scsi_Sense_Data                    0x08003020   Section        0  usb_scsi.o(i.Set_Scsi_Sense_Data)
    i.Set_USBClock                           0x0800302c   Section        0  hw_config.o(i.Set_USBClock)
    i.Setup0_Process                         0x08003048   Section        0  usb_core.o(i.Setup0_Process)
    i.Standard_ClearFeature                  0x080030f8   Section        0  usb_core.o(i.Standard_ClearFeature)
    i.Standard_GetConfiguration              0x08003254   Section        0  usb_core.o(i.Standard_GetConfiguration)
    i.Standard_GetDescriptorData             0x08003280   Section        0  usb_core.o(i.Standard_GetDescriptorData)
    i.Standard_GetInterface                  0x080032a4   Section        0  usb_core.o(i.Standard_GetInterface)
    i.Standard_GetStatus                     0x080032d0   Section        0  usb_core.o(i.Standard_GetStatus)
    i.Standard_SetConfiguration              0x080033c0   Section        0  usb_core.o(i.Standard_SetConfiguration)
    i.Standard_SetDeviceFeature              0x08003408   Section        0  usb_core.o(i.Standard_SetDeviceFeature)
    i.Standard_SetEndPointFeature            0x08003430   Section        0  usb_core.o(i.Standard_SetEndPointFeature)
    i.Standard_SetInterface                  0x080034f0   Section        0  usb_core.o(i.Standard_SetInterface)
    i.Stm32_Clock_Init                       0x0800355c   Section        0  sys.o(i.Stm32_Clock_Init)
    i.TIM3_IRQHandler                        0x080035ec   Section        0  timer.o(i.TIM3_IRQHandler)
    i.TIM5_IRQHandler                        0x0800361c   Section        0  timer.o(i.TIM5_IRQHandler)
    i.TIM6_IRQHandler                        0x080036e0   Section        0  timer.o(i.TIM6_IRQHandler)
    i.Transfer_Data_Request                  0x08003724   Section        0  usb_bot.o(i.Transfer_Data_Request)
    i.USART1_IRQHandler                      0x08003764   Section        0  usart.o(i.USART1_IRQHandler)
    i.USART2_IRQHandler                      0x080037e8   Section        0  usart.o(i.USART2_IRQHandler)
    i.USB_Cable_Config                       0x08003808   Section        0  hw_config.o(i.USB_Cable_Config)
    i.USB_HP_CAN1_TX_IRQHandler              0x08003820   Section        0  stm32f10x_it.o(i.USB_HP_CAN1_TX_IRQHandler)
    i.USB_Init                               0x08003828   Section        0  usb_init.o(i.USB_Init)
    i.USB_Interrupts_Config                  0x08003864   Section        0  hw_config.o(i.USB_Interrupts_Config)
    i.USB_Istr                               0x080038a0   Section        0  usb_istr.o(i.USB_Istr)
    i.USB_LP_CAN1_RX0_IRQHandler             0x080038f0   Section        0  stm32f10x_it.o(i.USB_LP_CAN1_RX0_IRQHandler)
    i.USB_NotConfigured_LED                  0x080038f8   Section        0  hw_config.o(i.USB_NotConfigured_LED)
    i.UserToPMABufferCopy                    0x080038fc   Section        0  usb_mem.o(i.UserToPMABufferCopy)
    i.Write_Memory                           0x08003934   Section        0  memory.o(i.Write_Memory)
    i._sys_exit                              0x08003a78   Section        0  usart.o(i._sys_exit)
    i.check_fs                               0x08003a80   Section        0  ff.o(i.check_fs)
    check_fs                                 0x08003a81   Thumb Code   138  ff.o(i.check_fs)
    i.chk_chr                                0x08003b10   Section        0  ff.o(i.chk_chr)
    chk_chr                                  0x08003b11   Thumb Code    20  ff.o(i.chk_chr)
    i.chk_mounted                            0x08003b24   Section        0  ff.o(i.chk_mounted)
    chk_mounted                              0x08003b25   Thumb Code   906  ff.o(i.chk_mounted)
    i.clmt_clust                             0x08003ec0   Section        0  ff.o(i.clmt_clust)
    clmt_clust                               0x08003ec1   Thumb Code    50  ff.o(i.clmt_clust)
    i.clust2sect                             0x08003ef2   Section        0  ff.o(i.clust2sect)
    i.cmp_lfn                                0x08003f0c   Section        0  ff.o(i.cmp_lfn)
    cmp_lfn                                  0x08003f0d   Thumb Code   138  ff.o(i.cmp_lfn)
    i.create_chain                           0x08003f9c   Section        0  ff.o(i.create_chain)
    create_chain                             0x08003f9d   Thumb Code   202  ff.o(i.create_chain)
    i.create_name                            0x08004068   Section        0  ff.o(i.create_name)
    create_name                              0x08004069   Thumb Code   604  ff.o(i.create_name)
    i.delay_init                             0x080042d8   Section        0  delay.o(i.delay_init)
    i.delay_ms                               0x08004318   Section        0  delay.o(i.delay_ms)
    i.dir_find                               0x08004354   Section        0  ff.o(i.dir_find)
    dir_find                                 0x08004355   Thumb Code   222  ff.o(i.dir_find)
    i.dir_next                               0x08004432   Section        0  ff.o(i.dir_next)
    dir_next                                 0x08004433   Thumb Code   280  ff.o(i.dir_next)
    i.dir_read                               0x0800454a   Section        0  ff.o(i.dir_read)
    dir_read                                 0x0800454b   Thumb Code   190  ff.o(i.dir_read)
    i.dir_register                           0x08004608   Section        0  ff.o(i.dir_register)
    dir_register                             0x08004609   Thumb Code   396  ff.o(i.dir_register)
    i.dir_sdi                                0x08004794   Section        0  ff.o(i.dir_sdi)
    i.disk_initialize                        0x08004830   Section        0  diskio.o(i.disk_initialize)
    i.disk_ioctl                             0x080048a8   Section        0  diskio.o(i.disk_ioctl)
    i.disk_read                              0x0800494c   Section        0  diskio.o(i.disk_read)
    i.disk_status                            0x080049c6   Section        0  diskio.o(i.disk_status)
    i.disk_write                             0x080049cc   Section        0  diskio.o(i.disk_write)
    i.exfuns_init                            0x08004a34   Section        0  exfuns.o(i.exfuns_init)
    i.f_close                                0x08004ab4   Section        0  ff.o(i.f_close)
    i.f_lseek                                0x08004aca   Section        0  ff.o(i.f_lseek)
    i.f_mount                                0x08004da8   Section        0  ff.o(i.f_mount)
    i.f_open                                 0x08004dd4   Section        0  ff.o(i.f_open)
    i.f_opendir                              0x08004f50   Section        0  ff.o(i.f_opendir)
    i.f_read                                 0x08004fda   Section        0  ff.o(i.f_read)
    i.f_readdir                              0x080051b4   Section        0  ff.o(i.f_readdir)
    i.f_sync                                 0x08005222   Section        0  ff.o(i.f_sync)
    i.f_write                                0x080052d2   Section        0  ff.o(i.f_write)
    i.ff_convert                             0x080054f0   Section        0  mycc936.o(i.ff_convert)
    i.ff_memalloc                            0x08005588   Section        0  diskio.o(i.ff_memalloc)
    i.ff_memfree                             0x08005596   Section        0  diskio.o(i.ff_memfree)
    i.ff_wtoupper                            0x080055a4   Section        0  mycc936.o(i.ff_wtoupper)
    i.fit_lfn                                0x080055dc   Section        0  ff.o(i.fit_lfn)
    fit_lfn                                  0x080055dd   Thumb Code   122  ff.o(i.fit_lfn)
    i.follow_path                            0x0800565c   Section        0  ff.o(i.follow_path)
    follow_path                              0x0800565d   Thumb Code   146  ff.o(i.follow_path)
    i.fputc                                  0x080056f0   Section        0  usart.o(i.fputc)
    i.gen_numname                            0x08005710   Section        0  ff.o(i.gen_numname)
    i.get_fat                                0x080057ce   Section        0  ff.o(i.get_fat)
    i.get_fattime                            0x080058b2   Section        0  diskio.o(i.get_fattime)
    i.get_fileinfo                           0x080058b6   Section        0  ff.o(i.get_fileinfo)
    get_fileinfo                             0x080058b7   Thumb Code   316  ff.o(i.get_fileinfo)
    i.ld_clust                               0x080059f2   Section        0  ff.o(i.ld_clust)
    ld_clust                                 0x080059f3   Thumb Code    32  ff.o(i.ld_clust)
    i.low_fix_trans_bug                      0x08005a14   Section        0  lower.o(i.low_fix_trans_bug)
    i.low_fix_trans_bug_read_byte            0x08005a54   Section        0  lower.o(i.low_fix_trans_bug_read_byte)
    i.low_fix_trans_bug_read_byte_ack        0x08005a88   Section        0  lower.o(i.low_fix_trans_bug_read_byte_ack)
    i.lower_get_state                        0x08005aa8   Section        0  lower.o(i.lower_get_state)
    i.lower_set_state                        0x08005ab4   Section        0  lower.o(i.lower_set_state)
    i.lower_uart_reset                       0x08005ac0   Section        0  lower.o(i.lower_uart_reset)
    i.lower_uart_rx                          0x08005b00   Section        0  lower.o(i.lower_uart_rx)
    i.lower_uart_rx_ack                      0x08005b64   Section        0  lower.o(i.lower_uart_rx_ack)
    i.lower_uart_rx_content                  0x08005bdc   Section        0  lower.o(i.lower_uart_rx_content)
    i.lower_uart_rx_hand_shake               0x08005c24   Section        0  lower.o(i.lower_uart_rx_hand_shake)
    i.lower_uart_rx_idle                     0x08005c94   Section        0  lower.o(i.lower_uart_rx_idle)
    i.lower_uart_tx                          0x08005d08   Section        0  lower.o(i.lower_uart_tx)
    i.lower_uart_tx_bin                      0x08005d5c   Section        0  lower.o(i.lower_uart_tx_bin)
    i.lower_uart_tx_disconnect               0x08005f18   Section        0  lower.o(i.lower_uart_tx_disconnect)
    i.main                                   0x08005f40   Section        0  main.o(i.main)
    i.mem_cmp                                0x08006298   Section        0  ff.o(i.mem_cmp)
    mem_cmp                                  0x08006299   Thumb Code    38  ff.o(i.mem_cmp)
    i.mem_cpy                                0x080062be   Section        0  ff.o(i.mem_cpy)
    mem_cpy                                  0x080062bf   Thumb Code    26  ff.o(i.mem_cpy)
    i.mem_free                               0x080062d8   Section        0  malloc.o(i.mem_free)
    i.mem_init                               0x08006344   Section        0  malloc.o(i.mem_init)
    i.mem_malloc                             0x08006388   Section        0  malloc.o(i.mem_malloc)
    i.mem_perused                            0x08006438   Section        0  malloc.o(i.mem_perused)
    i.mem_set                                0x08006478   Section        0  ff.o(i.mem_set)
    mem_set                                  0x08006479   Thumb Code    20  ff.o(i.mem_set)
    i.move_window                            0x0800648c   Section        0  ff.o(i.move_window)
    move_window                              0x0800648d   Thumb Code   114  ff.o(i.move_window)
    i.myfree                                 0x08006500   Section        0  malloc.o(i.myfree)
    i.mymalloc                               0x08006524   Section        0  malloc.o(i.mymalloc)
    i.mymemset                               0x0800654c   Section        0  malloc.o(i.mymemset)
    i.pick_lfn                               0x08006560   Section        0  ff.o(i.pick_lfn)
    pick_lfn                                 0x08006561   Thumb Code   112  ff.o(i.pick_lfn)
    i.power_control_pin_init                 0x080065d4   Section        0  power_control.o(i.power_control_pin_init)
    i.power_control_pin_off                  0x08006608   Section        0  power_control.o(i.power_control_pin_off)
    i.power_control_pin_on                   0x0800661c   Section        0  power_control.o(i.power_control_pin_on)
    i.put_fat                                0x08006630   Section        0  ff.o(i.put_fat)
    i.remove_chain                           0x08006766   Section        0  ff.o(i.remove_chain)
    remove_chain                             0x08006767   Thumb Code   104  ff.o(i.remove_chain)
    i.st_clust                               0x080067ce   Section        0  ff.o(i.st_clust)
    st_clust                                 0x080067cf   Thumb Code    16  ff.o(i.st_clust)
    i.sum_sfn                                0x080067de   Section        0  ff.o(i.sum_sfn)
    sum_sfn                                  0x080067df   Thumb Code    32  ff.o(i.sum_sfn)
    i.sync                                   0x080067fe   Section        0  ff.o(i.sync)
    sync                                     0x080067ff   Thumb Code   202  ff.o(i.sync)
    i.uart2_tx                               0x080068c8   Section        0  usart.o(i.uart2_tx)
    i.uart_init                              0x080068e4   Section        0  usart.o(i.uart_init)
    i.uart_tx                                0x08006a3c   Section        0  lower.o(i.uart_tx)
    i.usb_port_set                           0x08006a58   Section        0  main.o(i.usb_port_set)
    i.validate                               0x08006ab4   Section        0  ff.o(i.validate)
    validate                                 0x08006ab5   Thumb Code    52  ff.o(i.validate)
    x$fpl$fadd                               0x08006ae8   Section      196  faddsub_clz.o(x$fpl$fadd)
    _fadd1                                   0x08006af7   Thumb Code     0  faddsub_clz.o(x$fpl$fadd)
    x$fpl$fdiv                               0x08006bac   Section      388  fdiv.o(x$fpl$fdiv)
    _fdiv1                                   0x08006bad   Thumb Code     0  fdiv.o(x$fpl$fdiv)
    x$fpl$ffixu                              0x08006d30   Section       62  ffixu.o(x$fpl$ffixu)
    x$fpl$ffltu                              0x08006d70   Section       38  fflt_clz.o(x$fpl$ffltu)
    x$fpl$fmul                               0x08006d98   Section      258  fmul.o(x$fpl$fmul)
    x$fpl$fnaninf                            0x08006e9a   Section      140  fnaninf.o(x$fpl$fnaninf)
    x$fpl$fretinf                            0x08006f26   Section       10  fretinf.o(x$fpl$fretinf)
    x$fpl$frsb                               0x08006f30   Section       20  faddsub_clz.o(x$fpl$frsb)
    x$fpl$fsub                               0x08006f44   Section      234  faddsub_clz.o(x$fpl$fsub)
    _fsub1                                   0x08006f53   Thumb Code     0  faddsub_clz.o(x$fpl$fsub)
    x$fpl$usenofp                            0x0800702e   Section        0  usenofp.o(x$fpl$usenofp)
    .constdata                               0x08007030   Section       24  malloc.o(.constdata)
    .constdata                               0x08007048   Section      128  usb_desc.o(.constdata)
    .constdata                               0x080070c8   Section       58  ff.o(.constdata)
    LfnOfs                                   0x080070c8   Data          13  ff.o(.constdata)
    vst                                      0x080070d6   Data          22  ff.o(.constdata)
    cst                                      0x080070ec   Data          22  ff.o(.constdata)
    .constdata                               0x08007102   Section      960  mycc936.o(.constdata)
    tbl_lower                                0x08007102   Data         480  mycc936.o(.constdata)
    tbl_upper                                0x080072e2   Data         480  mycc936.o(.constdata)
    .constdata                               0x080074c2   Section       29  lower.o(.constdata)
    .constdata                               0x080074df   Section       40  _printf_hex_int.o(.constdata)
    uc_hextab                                0x080074df   Data          20  _printf_hex_int.o(.constdata)
    lc_hextab                                0x080074f3   Data          20  _printf_hex_int.o(.constdata)
    .conststring                             0x08007508   Section      100  exfuns.o(.conststring)
    .data                                    0x20000000   Section        2  flash.o(.data)
    .data                                    0x20000002   Section        5  timer.o(.data)
    .data                                    0x20000007   Section        1  mmc_sd.o(.data)
    .data                                    0x20000008   Section        3  exti.o(.data)
    .data                                    0x2000000c   Section       28  malloc.o(.data)
    .data                                    0x20000028   Section        4  delay.o(.data)
    fac_us                                   0x20000028   Data           1  delay.o(.data)
    fac_ms                                   0x2000002a   Data           2  delay.o(.data)
    .data                                    0x2000002c   Section        6  usart.o(.data)
    .data                                    0x20000034   Section       16  mass_mal.o(.data)
    .data                                    0x20000044   Section       36  memory.o(.data)
    Offset                                   0x20000058   Data           4  memory.o(.data)
    Length                                   0x2000005c   Data           4  memory.o(.data)
    W_Offset                                 0x20000060   Data           4  memory.o(.data)
    W_Length                                 0x20000064   Data           4  memory.o(.data)
    .data                                    0x20000068   Section      128  scsi_data.o(.data)
    .data                                    0x200000e8   Section       12  usb_bot.o(.data)
    .data                                    0x200000f4   Section       26  usb_desc.o(.data)
    .data                                    0x20000110   Section       60  usb_istr.o(.data)
    .data                                    0x2000014c   Section      148  usb_prop.o(.data)
    .data                                    0x200001e0   Section        7  usb_pwr.o(.data)
    .data                                    0x200001e8   Section        3  usb_core.o(.data)
    .data                                    0x200001ec   Section       20  usb_init.o(.data)
    .data                                    0x20000200   Section        4  usb_int.o(.data)
    .data                                    0x20000204   Section       12  main.o(.data)
    .data                                    0x20000210   Section        2  diskio.o(.data)
    .data                                    0x20000214   Section      340  exfuns.o(.data)
    .data                                    0x20000368   Section       10  ff.o(.data)
    FatFs                                    0x20000368   Data           8  ff.o(.data)
    Fsid                                     0x20000370   Data           2  ff.o(.data)
    .data                                    0x20000374   Section       40  lower.o(.data)
    read_count                               0x20000398   Data           4  lower.o(.data)
    .bss                                     0x2000039c   Section     4096  flash.o(.bss)
    .bss                                     0x2000139c   Section    43520  malloc.o(.bss)
    .bss                                     0x2000bd9c   Section      200  usart.o(.bss)
    .bss                                     0x2000be68   Section       16  mass_mal.o(.bss)
    .bss                                     0x2000be78   Section      512  memory.o(.bss)
    .bss                                     0x2000c078   Section      112  usb_bot.o(.bss)
    .bss                                     0x2000c0e8   Section       28  usb_init.o(.bss)
    .bss                                     0x2000c104   Section       32  main.o(.bss)
    file_info                                0x2000c104   Data          32  main.o(.bss)
    .bss                                     0x2000c124   Section       25  fontupd.o(.bss)
    .bss                                     0x2000c13d   Section        9  lower.o(.bss)
    header                                   0x2000c13d   Data           9  lower.o(.bss)
    .bss                                     0x2000c148   Section       96  libspace.o(.bss)
    HEAP                                     0x2000c1a8   Section        0  startup_stm32f10x_hd.o(HEAP)
    STACK                                    0x2000c1a8   Section     2048  startup_stm32f10x_hd.o(STACK)
    Heap_Mem                                 0x2000c1a8   Data           0  startup_stm32f10x_hd.o(HEAP)
    Stack_Mem                                0x2000c1a8   Data        2048  startup_stm32f10x_hd.o(STACK)
    __initial_sp                             0x2000c9a8   Data           0  startup_stm32f10x_hd.o(STACK)
    .ARM.__AT_0x68000000                     0x68000000   Section    204800  malloc.o(.ARM.__AT_0x68000000)
    .ARM.__AT_0x68032000                     0x68032000   Section    12800  malloc.o(.ARM.__AT_0x68032000)

    Global Symbols

    Symbol Name                              Value     Ov Type        Size  Object(Section)

    BuildAttributes$$THM_ISAv4$P$D$K$B$S$PE$A:L22UL41UL21$X:L11$S22US41US21$IEEE1$IW$USESV6$~STKCKD$USESV7$~SHL$OSPACE$ROPI$EBA8$UX$STANDARDLIB$REQ8$PRES8$EABIv2 0x00000000   Number         0  anon$$obj.o ABSOLUTE
    __ARM_use_no_argv                        0x00000000   Number         0  main.o ABSOLUTE
    __ARM_exceptions_init                     - Undefined Weak Reference
    __alloca_initialize                       - Undefined Weak Reference
    __arm_preinit_                            - Undefined Weak Reference
    __cpp_initialize__aeabi_                  - Undefined Weak Reference
    __cxa_finalize                            - Undefined Weak Reference
    __rt_locale                               - Undefined Weak Reference
    __sigvec_lookup                           - Undefined Weak Reference
    _atexit_init                              - Undefined Weak Reference
    _call_atexit_fns                          - Undefined Weak Reference
    _clock_init                               - Undefined Weak Reference
    _fp_trap_init                             - Undefined Weak Reference
    _fp_trap_shutdown                         - Undefined Weak Reference
    _get_lc_collate                           - Undefined Weak Reference
    _get_lc_ctype                             - Undefined Weak Reference
    _get_lc_monetary                          - Undefined Weak Reference
    _get_lc_numeric                           - Undefined Weak Reference
    _get_lc_time                              - Undefined Weak Reference
    _getenv_init                              - Undefined Weak Reference
    _handle_redirection                       - Undefined Weak Reference
    _init_alloc                               - Undefined Weak Reference
    _init_user_alloc                          - Undefined Weak Reference
    _initio                                   - Undefined Weak Reference
    _mutex_acquire                            - Undefined Weak Reference
    _mutex_release                            - Undefined Weak Reference
    _printf_post_padding                      - Undefined Weak Reference
    _printf_pre_padding                       - Undefined Weak Reference
    _printf_truncate_signed                   - Undefined Weak Reference
    _printf_truncate_unsigned                 - Undefined Weak Reference
    _rand_init                                - Undefined Weak Reference
    _signal_finish                            - Undefined Weak Reference
    _signal_init                              - Undefined Weak Reference
    _terminate_alloc                          - Undefined Weak Reference
    _terminate_user_alloc                     - Undefined Weak Reference
    _terminateio                              - Undefined Weak Reference
    __Vectors_Size                           0x00000130   Number         0  startup_stm32f10x_hd.o ABSOLUTE
    __Vectors                                0x08000000   Data           4  startup_stm32f10x_hd.o(RESET)
    __Vectors_End                            0x08000130   Data           0  startup_stm32f10x_hd.o(RESET)
    __main                                   0x08000131   Thumb Code     8  __main.o(!!!main)
    __scatterload                            0x08000139   Thumb Code     0  __scatter.o(!!!scatter)
    __scatterload_rt2                        0x08000139   Thumb Code    44  __scatter.o(!!!scatter)
    __scatterload_rt2_thumb_only             0x08000139   Thumb Code     0  __scatter.o(!!!scatter)
    __scatterload_null                       0x08000147   Thumb Code     0  __scatter.o(!!!scatter)
    __decompress                             0x0800016d   Thumb Code    90  __dczerorl2.o(!!dczerorl2)
    __decompress1                            0x0800016d   Thumb Code     0  __dczerorl2.o(!!dczerorl2)
    __scatterload_zeroinit                   0x080001c9   Thumb Code    28  __scatter_zi.o(!!handler_zi)
    _printf_d                                0x080001e5   Thumb Code     0  _printf_d.o(.ARM.Collect$$_printf_percent$$00000009)
    _printf_percent                          0x080001e5   Thumb Code     0  _printf_percent.o(.ARM.Collect$$_printf_percent$$00000000)
    _printf_x                                0x080001eb   Thumb Code     0  _printf_x.o(.ARM.Collect$$_printf_percent$$0000000C)
    _printf_percent_end                      0x080001f1   Thumb Code     0  _printf_percent_end.o(.ARM.Collect$$_printf_percent$$00000017)
    __rt_lib_init                            0x080001f5   Thumb Code     0  libinit.o(.ARM.Collect$$libinit$$00000000)
    __rt_lib_init_alloca_1                   0x080001f7   Thumb Code     0  libinit2.o(.ARM.Collect$$libinit$$0000002E)
    __rt_lib_init_argv_1                     0x080001f7   Thumb Code     0  libinit2.o(.ARM.Collect$$libinit$$0000002C)
    __rt_lib_init_atexit_1                   0x080001f7   Thumb Code     0  libinit2.o(.ARM.Collect$$libinit$$0000001B)
    __rt_lib_init_clock_1                    0x080001f7   Thumb Code     0  libinit2.o(.ARM.Collect$$libinit$$00000021)
    __rt_lib_init_cpp_1                      0x080001f7   Thumb Code     0  libinit2.o(.ARM.Collect$$libinit$$00000032)
    __rt_lib_init_exceptions_1               0x080001f7   Thumb Code     0  libinit2.o(.ARM.Collect$$libinit$$00000030)
    __rt_lib_init_fp_1                       0x080001f7   Thumb Code     0  libinit2.o(.ARM.Collect$$libinit$$00000002)
    __rt_lib_init_fp_trap_1                  0x080001f7   Thumb Code     0  libinit2.o(.ARM.Collect$$libinit$$0000001F)
    __rt_lib_init_getenv_1                   0x080001f7   Thumb Code     0  libinit2.o(.ARM.Collect$$libinit$$00000023)
    __rt_lib_init_heap_1                     0x080001f7   Thumb Code     0  libinit2.o(.ARM.Collect$$libinit$$0000000A)
    __rt_lib_init_lc_collate_1               0x080001f7   Thumb Code     0  libinit2.o(.ARM.Collect$$libinit$$00000011)
    __rt_lib_init_lc_ctype_1                 0x080001f7   Thumb Code     0  libinit2.o(.ARM.Collect$$libinit$$00000013)
    __rt_lib_init_lc_monetary_1              0x080001f7   Thumb Code     0  libinit2.o(.ARM.Collect$$libinit$$00000015)
    __rt_lib_init_lc_numeric_1               0x080001f7   Thumb Code     0  libinit2.o(.ARM.Collect$$libinit$$00000017)
    __rt_lib_init_lc_time_1                  0x080001f7   Thumb Code     0  libinit2.o(.ARM.Collect$$libinit$$00000019)
    __rt_lib_init_preinit_1                  0x080001f7   Thumb Code     0  libinit2.o(.ARM.Collect$$libinit$$00000004)
    __rt_lib_init_rand_1                     0x080001f7   Thumb Code     0  libinit2.o(.ARM.Collect$$libinit$$0000000E)
    __rt_lib_init_return                     0x080001f7   Thumb Code     0  libinit2.o(.ARM.Collect$$libinit$$00000033)
    __rt_lib_init_signal_1                   0x080001f7   Thumb Code     0  libinit2.o(.ARM.Collect$$libinit$$0000001D)
    __rt_lib_init_stdio_1                    0x080001f7   Thumb Code     0  libinit2.o(.ARM.Collect$$libinit$$00000025)
    __rt_lib_init_user_alloc_1               0x080001f7   Thumb Code     0  libinit2.o(.ARM.Collect$$libinit$$0000000C)
    __rt_lib_shutdown                        0x080001f9   Thumb Code     0  libshutdown.o(.ARM.Collect$$libshutdown$$00000000)
    __rt_lib_shutdown_cpp_1                  0x080001fb   Thumb Code     0  libshutdown2.o(.ARM.Collect$$libshutdown$$00000002)
    __rt_lib_shutdown_fp_trap_1              0x080001fb   Thumb Code     0  libshutdown2.o(.ARM.Collect$$libshutdown$$00000007)
    __rt_lib_shutdown_heap_1                 0x080001fb   Thumb Code     0  libshutdown2.o(.ARM.Collect$$libshutdown$$0000000F)
    __rt_lib_shutdown_return                 0x080001fb   Thumb Code     0  libshutdown2.o(.ARM.Collect$$libshutdown$$00000010)
    __rt_lib_shutdown_signal_1               0x080001fb   Thumb Code     0  libshutdown2.o(.ARM.Collect$$libshutdown$$0000000A)
    __rt_lib_shutdown_stdio_1                0x080001fb   Thumb Code     0  libshutdown2.o(.ARM.Collect$$libshutdown$$00000004)
    __rt_lib_shutdown_user_alloc_1           0x080001fb   Thumb Code     0  libshutdown2.o(.ARM.Collect$$libshutdown$$0000000C)
    __rt_entry                               0x080001fd   Thumb Code     0  __rtentry.o(.ARM.Collect$$rtentry$$00000000)
    __rt_entry_presh_1                       0x080001fd   Thumb Code     0  __rtentry2.o(.ARM.Collect$$rtentry$$00000002)
    __rt_entry_sh                            0x080001fd   Thumb Code     0  __rtentry4.o(.ARM.Collect$$rtentry$$00000004)
    __rt_entry_li                            0x08000203   Thumb Code     0  __rtentry2.o(.ARM.Collect$$rtentry$$0000000A)
    __rt_entry_postsh_1                      0x08000203   Thumb Code     0  __rtentry2.o(.ARM.Collect$$rtentry$$00000009)
    __rt_entry_main                          0x08000207   Thumb Code     0  __rtentry2.o(.ARM.Collect$$rtentry$$0000000D)
    __rt_entry_postli_1                      0x08000207   Thumb Code     0  __rtentry2.o(.ARM.Collect$$rtentry$$0000000C)
    __rt_exit                                0x0800020f   Thumb Code     0  rtexit.o(.ARM.Collect$$rtexit$$00000000)
    __rt_exit_ls                             0x08000211   Thumb Code     0  rtexit2.o(.ARM.Collect$$rtexit$$00000003)
    __rt_exit_prels_1                        0x08000211   Thumb Code     0  rtexit2.o(.ARM.Collect$$rtexit$$00000002)
    __rt_exit_exit                           0x08000215   Thumb Code     0  rtexit2.o(.ARM.Collect$$rtexit$$00000004)
    SystemInit_ExtMemCtl                     0x0800021d   Thumb Code     2  startup_stm32f10x_hd.o(.text)
    Reset_Handler                            0x0800021f   Thumb Code    14  startup_stm32f10x_hd.o(.text)
    NMI_Handler                              0x0800022d   Thumb Code     2  startup_stm32f10x_hd.o(.text)
    HardFault_Handler                        0x0800022f   Thumb Code     2  startup_stm32f10x_hd.o(.text)
    MemManage_Handler                        0x08000231   Thumb Code     2  startup_stm32f10x_hd.o(.text)
    BusFault_Handler                         0x08000233   Thumb Code     2  startup_stm32f10x_hd.o(.text)
    UsageFault_Handler                       0x08000235   Thumb Code     2  startup_stm32f10x_hd.o(.text)
    SVC_Handler                              0x08000237   Thumb Code     2  startup_stm32f10x_hd.o(.text)
    DebugMon_Handler                         0x08000239   Thumb Code     2  startup_stm32f10x_hd.o(.text)
    PendSV_Handler                           0x0800023b   Thumb Code     2  startup_stm32f10x_hd.o(.text)
    SysTick_Handler                          0x0800023d   Thumb Code     2  startup_stm32f10x_hd.o(.text)
    ADC1_2_IRQHandler                        0x0800023f   Thumb Code     0  startup_stm32f10x_hd.o(.text)
    ADC3_IRQHandler                          0x0800023f   Thumb Code     0  startup_stm32f10x_hd.o(.text)
    CAN1_RX1_IRQHandler                      0x0800023f   Thumb Code     0  startup_stm32f10x_hd.o(.text)
    CAN1_SCE_IRQHandler                      0x0800023f   Thumb Code     0  startup_stm32f10x_hd.o(.text)
    DMA1_Channel1_IRQHandler                 0x0800023f   Thumb Code     0  startup_stm32f10x_hd.o(.text)
    DMA1_Channel2_IRQHandler                 0x0800023f   Thumb Code     0  startup_stm32f10x_hd.o(.text)
    DMA1_Channel3_IRQHandler                 0x0800023f   Thumb Code     0  startup_stm32f10x_hd.o(.text)
    DMA1_Channel4_IRQHandler                 0x0800023f   Thumb Code     0  startup_stm32f10x_hd.o(.text)
    DMA1_Channel5_IRQHandler                 0x0800023f   Thumb Code     0  startup_stm32f10x_hd.o(.text)
    DMA1_Channel6_IRQHandler                 0x0800023f   Thumb Code     0  startup_stm32f10x_hd.o(.text)
    DMA1_Channel7_IRQHandler                 0x0800023f   Thumb Code     0  startup_stm32f10x_hd.o(.text)
    DMA2_Channel1_IRQHandler                 0x0800023f   Thumb Code     0  startup_stm32f10x_hd.o(.text)
    DMA2_Channel2_IRQHandler                 0x0800023f   Thumb Code     0  startup_stm32f10x_hd.o(.text)
    DMA2_Channel3_IRQHandler                 0x0800023f   Thumb Code     0  startup_stm32f10x_hd.o(.text)
    DMA2_Channel4_5_IRQHandler               0x0800023f   Thumb Code     0  startup_stm32f10x_hd.o(.text)
    EXTI0_IRQHandler                         0x0800023f   Thumb Code     0  startup_stm32f10x_hd.o(.text)
    EXTI15_10_IRQHandler                     0x0800023f   Thumb Code     0  startup_stm32f10x_hd.o(.text)
    EXTI1_IRQHandler                         0x0800023f   Thumb Code     0  startup_stm32f10x_hd.o(.text)
    EXTI2_IRQHandler                         0x0800023f   Thumb Code     0  startup_stm32f10x_hd.o(.text)
    FLASH_IRQHandler                         0x0800023f   Thumb Code     0  startup_stm32f10x_hd.o(.text)
    FSMC_IRQHandler                          0x0800023f   Thumb Code     0  startup_stm32f10x_hd.o(.text)
    I2C1_ER_IRQHandler                       0x0800023f   Thumb Code     0  startup_stm32f10x_hd.o(.text)
    I2C1_EV_IRQHandler                       0x0800023f   Thumb Code     0  startup_stm32f10x_hd.o(.text)
    I2C2_ER_IRQHandler                       0x0800023f   Thumb Code     0  startup_stm32f10x_hd.o(.text)
    I2C2_EV_IRQHandler                       0x0800023f   Thumb Code     0  startup_stm32f10x_hd.o(.text)
    PVD_IRQHandler                           0x0800023f   Thumb Code     0  startup_stm32f10x_hd.o(.text)
    RCC_IRQHandler                           0x0800023f   Thumb Code     0  startup_stm32f10x_hd.o(.text)
    RTCAlarm_IRQHandler                      0x0800023f   Thumb Code     0  startup_stm32f10x_hd.o(.text)
    RTC_IRQHandler                           0x0800023f   Thumb Code     0  startup_stm32f10x_hd.o(.text)
    SDIO_IRQHandler                          0x0800023f   Thumb Code     0  startup_stm32f10x_hd.o(.text)
    SPI1_IRQHandler                          0x0800023f   Thumb Code     0  startup_stm32f10x_hd.o(.text)
    SPI2_IRQHandler                          0x0800023f   Thumb Code     0  startup_stm32f10x_hd.o(.text)
    SPI3_IRQHandler                          0x0800023f   Thumb Code     0  startup_stm32f10x_hd.o(.text)
    TAMPER_IRQHandler                        0x0800023f   Thumb Code     0  startup_stm32f10x_hd.o(.text)
    TIM1_BRK_IRQHandler                      0x0800023f   Thumb Code     0  startup_stm32f10x_hd.o(.text)
    TIM1_CC_IRQHandler                       0x0800023f   Thumb Code     0  startup_stm32f10x_hd.o(.text)
    TIM1_TRG_COM_IRQHandler                  0x0800023f   Thumb Code     0  startup_stm32f10x_hd.o(.text)
    TIM1_UP_IRQHandler                       0x0800023f   Thumb Code     0  startup_stm32f10x_hd.o(.text)
    TIM2_IRQHandler                          0x0800023f   Thumb Code     0  startup_stm32f10x_hd.o(.text)
    TIM4_IRQHandler                          0x0800023f   Thumb Code     0  startup_stm32f10x_hd.o(.text)
    TIM7_IRQHandler                          0x0800023f   Thumb Code     0  startup_stm32f10x_hd.o(.text)
    TIM8_BRK_IRQHandler                      0x0800023f   Thumb Code     0  startup_stm32f10x_hd.o(.text)
    TIM8_CC_IRQHandler                       0x0800023f   Thumb Code     0  startup_stm32f10x_hd.o(.text)
    TIM8_TRG_COM_IRQHandler                  0x0800023f   Thumb Code     0  startup_stm32f10x_hd.o(.text)
    TIM8_UP_IRQHandler                       0x0800023f   Thumb Code     0  startup_stm32f10x_hd.o(.text)
    UART4_IRQHandler                         0x0800023f   Thumb Code     0  startup_stm32f10x_hd.o(.text)
    UART5_IRQHandler                         0x0800023f   Thumb Code     0  startup_stm32f10x_hd.o(.text)
    USART3_IRQHandler                        0x0800023f   Thumb Code     0  startup_stm32f10x_hd.o(.text)
    USBWakeUp_IRQHandler                     0x0800023f   Thumb Code     0  startup_stm32f10x_hd.o(.text)
    WWDG_IRQHandler                          0x0800023f   Thumb Code     0  startup_stm32f10x_hd.o(.text)
    __user_initial_stackheap                 0x08000241   Thumb Code     0  startup_stm32f10x_hd.o(.text)
    __use_no_semihosting                     0x08000265   Thumb Code     2  use_no_semi_2.o(.text)
    __aeabi_ldivmod                          0x08000267   Thumb Code     0  llsdiv.o(.text)
    _ll_sdiv                                 0x08000267   Thumb Code    72  llsdiv.o(.text)
    __2printf                                0x080002b1   Thumb Code    20  noretval__2printf.o(.text)
    __printf                                 0x080002c9   Thumb Code   104  __printf.o(.text)
    _printf_int_dec                          0x08000331   Thumb Code   104  _printf_dec.o(.text)
    _printf_int_hex                          0x080003a9   Thumb Code    84  _printf_hex_int.o(.text)
    _printf_longlong_hex                     0x080003a9   Thumb Code     0  _printf_hex_int.o(.text)
    memcmp                                   0x08000401   Thumb Code    88  memcmp.o(.text)
    __aeabi_memcpy                           0x08000459   Thumb Code     0  rt_memcpy_v6.o(.text)
    __rt_memcpy                              0x08000459   Thumb Code   138  rt_memcpy_v6.o(.text)
    _memcpy_lastbytes                        0x080004bf   Thumb Code     0  rt_memcpy_v6.o(.text)
    __use_two_region_memory                  0x080004e3   Thumb Code     2  heapauxi.o(.text)
    __rt_heap_escrow$2region                 0x080004e5   Thumb Code     2  heapauxi.o(.text)
    __rt_heap_expand$2region                 0x080004e7   Thumb Code     2  heapauxi.o(.text)
    __I$use$semihosting                      0x080004e9   Thumb Code     0  use_no_semi.o(.text)
    __use_no_semihosting_swi                 0x080004e9   Thumb Code     2  use_no_semi.o(.text)
    __aeabi_uldivmod                         0x080004eb   Thumb Code     0  lludivv7m.o(.text)
    _ll_udiv                                 0x080004eb   Thumb Code   238  lludivv7m.o(.text)
    _printf_int_common                       0x080005d9   Thumb Code   178  _printf_intcommon.o(.text)
    _printf_char_file                        0x0800068d   Thumb Code    32  _printf_char_file.o(.text)
    __aeabi_memcpy4                          0x080006b1   Thumb Code     0  rt_memcpy_w.o(.text)
    __aeabi_memcpy8                          0x080006b1   Thumb Code     0  rt_memcpy_w.o(.text)
    __rt_memcpy_w                            0x080006b1   Thumb Code   100  rt_memcpy_w.o(.text)
    _memcpy_lastbytes_aligned                0x080006f9   Thumb Code     0  rt_memcpy_w.o(.text)
    _printf_char_common                      0x0800071f   Thumb Code    32  _printf_char_common.o(.text)
    ferror                                   0x08000745   Thumb Code     8  ferror.o(.text)
    __user_setup_stackheap                   0x0800074d   Thumb Code    74  sys_stackheap_outer.o(.text)
    exit                                     0x08000797   Thumb Code    18  exit.o(.text)
    __user_libspace                          0x080007a9   Thumb Code     8  libspace.o(.text)
    __user_perproc_libspace                  0x080007a9   Thumb Code     0  libspace.o(.text)
    __user_perthread_libspace                0x080007a9   Thumb Code     0  libspace.o(.text)
    Bot_Abort                                0x080007b1   Thumb Code    64  usb_bot.o(i.Bot_Abort)
    ByteSwap                                 0x080007f1   Thumb Code    12  usb_regs.o(i.ByteSwap)
    CBW_Decode                               0x080007fd   Thumb Code   676  usb_bot.o(i.CBW_Decode)
    CTR_HP                                   0x08000ac1   Thumb Code   174  usb_int.o(i.CTR_HP)
    CTR_LP                                   0x08000b89   Thumb Code   774  usb_int.o(i.CTR_LP)
    ClearDTOG_RX                             0x08000eb1   Thumb Code    46  usb_regs.o(i.ClearDTOG_RX)
    ClearDTOG_TX                             0x08000ee5   Thumb Code    46  usb_regs.o(i.ClearDTOG_TX)
    Clear_Status_Out                         0x08000f19   Thumb Code    28  usb_regs.o(i.Clear_Status_Out)
    EP1_IN_Callback                          0x0800134d   Thumb Code     8  usb_endp.o(i.EP1_IN_Callback)
    EP2_OUT_Callback                         0x08001355   Thumb Code     8  usb_endp.o(i.EP2_OUT_Callback)
    EXTI3_IRQHandler                         0x0800135d   Thumb Code    28  exti.o(i.EXTI3_IRQHandler)
    EXTI4_IRQHandler                         0x08001385   Thumb Code    28  exti.o(i.EXTI4_IRQHandler)
    EXTI9_5_IRQHandler                       0x080013ad   Thumb Code    28  exti.o(i.EXTI9_5_IRQHandler)
    EXTIX_Init                               0x080013d5   Thumb Code   122  exti.o(i.EXTIX_Init)
    Ex_NVIC_Config                           0x08001461   Thumb Code   146  sys.o(i.Ex_NVIC_Config)
    GetEPRxAddr                              0x08001501   Thumb Code    24  usb_regs.o(i.GetEPRxAddr)
    GetEPRxCount                             0x08001521   Thumb Code    26  usb_regs.o(i.GetEPRxCount)
    GetEPTxAddr                              0x08001545   Thumb Code    22  usb_regs.o(i.GetEPTxAddr)
    Get_Max_Lun                              0x08001565   Thumb Code    20  usb_prop.o(i.Get_Max_Lun)
    Get_SerialNum                            0x08001581   Thumb Code    62  hw_config.o(i.Get_SerialNum)
    In0_Process                              0x080015c9   Thumb Code    98  usb_core.o(i.In0_Process)
    LED_Init                                 0x08001639   Thumb Code    52  led.o(i.LED_Init)
    Led_RW_OFF                               0x08001675   Thumb Code     8  hw_config.o(i.Led_RW_OFF)
    Led_RW_ON                                0x08001681   Thumb Code     8  hw_config.o(i.Led_RW_ON)
    MAL_GetStatus                            0x0800168d   Thumb Code    30  mass_mal.o(i.MAL_GetStatus)
    MAL_Read                                 0x080016ab   Thumb Code    66  mass_mal.o(i.MAL_Read)
    MAL_Write                                0x080016ed   Thumb Code    66  mass_mal.o(i.MAL_Write)
    MASS_Data_Setup                          0x08001731   Thumb Code    86  usb_prop.o(i.MASS_Data_Setup)
    MASS_GetConfigDescriptor                 0x08001791   Thumb Code    14  usb_prop.o(i.MASS_GetConfigDescriptor)
    MASS_GetDeviceDescriptor                 0x080017a5   Thumb Code    14  usb_prop.o(i.MASS_GetDeviceDescriptor)
    MASS_GetStringDescriptor                 0x080017b9   Thumb Code    32  usb_prop.o(i.MASS_GetStringDescriptor)
    MASS_Get_Interface_Setting               0x080017e1   Thumb Code    22  usb_prop.o(i.MASS_Get_Interface_Setting)
    MASS_NoData_Setup                        0x080017f9   Thumb Code    76  usb_prop.o(i.MASS_NoData_Setup)
    MASS_Reset                               0x08001855   Thumb Code   208  usb_prop.o(i.MASS_Reset)
    MASS_Status_In                           0x08001945   Thumb Code     2  usb_prop.o(i.MASS_Status_In)
    MASS_Status_Out                          0x08001947   Thumb Code     2  usb_prop.o(i.MASS_Status_Out)
    MASS_init                                0x08001949   Thumb Code    50  usb_prop.o(i.MASS_init)
    MYRCC_DeInit                             0x0800198d   Thumb Code    90  sys.o(i.MYRCC_DeInit)
    MY_NVIC_Init                             0x080019f5   Thumb Code   144  sys.o(i.MY_NVIC_Init)
    MY_NVIC_PriorityGroupConfig              0x08001a8d   Thumb Code    32  sys.o(i.MY_NVIC_PriorityGroupConfig)
    MY_NVIC_SetVectorTable                   0x08001ab5   Thumb Code    12  sys.o(i.MY_NVIC_SetVectorTable)
    Mass_Storage_ClearFeature                0x08001ac9   Thumb Code    20  usb_prop.o(i.Mass_Storage_ClearFeature)
    Mass_Storage_In                          0x08001ae5   Thumb Code   124  usb_bot.o(i.Mass_Storage_In)
    Mass_Storage_Out                         0x08001b75   Thumb Code   152  usb_bot.o(i.Mass_Storage_Out)
    Mass_Storage_SetConfiguration            0x08001c29   Thumb Code    36  usb_prop.o(i.Mass_Storage_SetConfiguration)
    Mass_Storage_SetDeviceAddress            0x08001c59   Thumb Code     8  usb_prop.o(i.Mass_Storage_SetDeviceAddress)
    NOP_Process                              0x08001c65   Thumb Code     2  usb_core.o(i.NOP_Process)
    Out0_Process                             0x08001dad   Thumb Code    70  usb_core.o(i.Out0_Process)
    PMAToUserBufferCopy                      0x08001dfd   Thumb Code    34  usb_mem.o(i.PMAToUserBufferCopy)
    Post0_Process                            0x08001e25   Thumb Code    54  usb_core.o(i.Post0_Process)
    PowerOn                                  0x08001e6d   Thumb Code    54  usb_pwr.o(i.PowerOn)
    Read_Memory                              0x08001ead   Thumb Code   252  memory.o(i.Read_Memory)
    SCSI_Address_Management                  0x08001fd1   Thumb Code   126  usb_scsi.o(i.SCSI_Address_Management)
    SCSI_Format_Cmd                          0x0800205d   Thumb Code    44  usb_scsi.o(i.SCSI_Format_Cmd)
    SCSI_Inquiry_Cmd                         0x0800208d   Thumb Code    54  usb_scsi.o(i.SCSI_Inquiry_Cmd)
    SCSI_Invalid_Cmd                         0x080020d5   Thumb Code    64  usb_scsi.o(i.SCSI_Invalid_Cmd)
    SCSI_ModeSense10_Cmd                     0x08002119   Thumb Code    14  usb_scsi.o(i.SCSI_ModeSense10_Cmd)
    SCSI_ModeSense6_Cmd                      0x0800212d   Thumb Code    14  usb_scsi.o(i.SCSI_ModeSense6_Cmd)
    SCSI_Read10_Cmd                          0x08002141   Thumb Code   110  usb_scsi.o(i.SCSI_Read10_Cmd)
    SCSI_ReadCapacity10_Cmd                  0x080021b9   Thumb Code   138  usb_scsi.o(i.SCSI_ReadCapacity10_Cmd)
    SCSI_ReadFormatCapacity_Cmd              0x08002255   Thumb Code   120  usb_scsi.o(i.SCSI_ReadFormatCapacity_Cmd)
    SCSI_RequestSense_Cmd                    0x080022dd   Thumb Code    30  usb_scsi.o(i.SCSI_RequestSense_Cmd)
    SCSI_Start_Stop_Unit_Cmd                 0x08002305   Thumb Code    14  usb_scsi.o(i.SCSI_Start_Stop_Unit_Cmd)
    SCSI_TestUnitReady_Cmd                   0x08002315   Thumb Code    52  usb_scsi.o(i.SCSI_TestUnitReady_Cmd)
    SCSI_Verify10_Cmd                        0x0800234d   Thumb Code    58  usb_scsi.o(i.SCSI_Verify10_Cmd)
    SCSI_Write10_Cmd                         0x0800238d   Thumb Code   110  usb_scsi.o(i.SCSI_Write10_Cmd)
    SD_DisSelect                             0x08002405   Thumb Code    16  mmc_sd.o(i.SD_DisSelect)
    SD_GetCSD                                0x08002419   Thumb Code    42  mmc_sd.o(i.SD_GetCSD)
    SD_GetResponse                           0x08002443   Thumb Code    38  mmc_sd.o(i.SD_GetResponse)
    SD_GetSectorCount                        0x08002469   Thumb Code   118  mmc_sd.o(i.SD_GetSectorCount)
    SD_Initialize                            0x080024e1   Thumb Code   386  mmc_sd.o(i.SD_Initialize)
    SD_ReadDisk                              0x08002669   Thumb Code   112  mmc_sd.o(i.SD_ReadDisk)
    SD_RecvData                              0x080026dd   Thumb Code    56  mmc_sd.o(i.SD_RecvData)
    SD_SPI_Init                              0x08002715   Thumb Code   154  mmc_sd.o(i.SD_SPI_Init)
    SD_SPI_ReadWriteByte                     0x080027c5   Thumb Code    12  mmc_sd.o(i.SD_SPI_ReadWriteByte)
    SD_SPI_SpeedHigh                         0x080027d1   Thumb Code    10  mmc_sd.o(i.SD_SPI_SpeedHigh)
    SD_SPI_SpeedLow                          0x080027db   Thumb Code    10  mmc_sd.o(i.SD_SPI_SpeedLow)
    SD_Select                                0x080027e5   Thumb Code    26  mmc_sd.o(i.SD_Select)
    SD_SendBlock                             0x08002805   Thumb Code    82  mmc_sd.o(i.SD_SendBlock)
    SD_SendCmd                               0x08002857   Thumb Code   120  mmc_sd.o(i.SD_SendCmd)
    SD_WaitReady                             0x080028cf   Thumb Code    34  mmc_sd.o(i.SD_WaitReady)
    SD_WriteDisk                             0x080028f1   Thumb Code   140  mmc_sd.o(i.SD_WriteDisk)
    SPI2_Init                                0x08002981   Thumb Code   162  spi.o(i.SPI2_Init)
    SPI2_ReadWriteByte                       0x08002a35   Thumb Code    82  spi.o(i.SPI2_ReadWriteByte)
    SPI2_SetSpeed                            0x08002a8d   Thumb Code    40  spi.o(i.SPI2_SetSpeed)
    SPI_FLASH_Write_Enable                   0x08002ab9   Thumb Code    24  flash.o(i.SPI_FLASH_Write_Enable)
    SPI_Flash_Erase_Sector                   0x08002ad9   Thumb Code    70  flash.o(i.SPI_Flash_Erase_Sector)
    SPI_Flash_Init                           0x08002b31   Thumb Code   162  flash.o(i.SPI_Flash_Init)
    SPI_Flash_Read                           0x08002be9   Thumb Code    74  flash.o(i.SPI_Flash_Read)
    SPI_Flash_ReadID                         0x08002c39   Thumb Code    64  flash.o(i.SPI_Flash_ReadID)
    SPI_Flash_ReadSR                         0x08002c81   Thumb Code    36  flash.o(i.SPI_Flash_ReadSR)
    SPI_Flash_Wait_Busy                      0x08002cad   Thumb Code    18  flash.o(i.SPI_Flash_Wait_Busy)
    SPI_Flash_Write                          0x08002cc1   Thumb Code   180  flash.o(i.SPI_Flash_Write)
    SPI_Flash_Write_NoCheck                  0x08002d79   Thumb Code    70  flash.o(i.SPI_Flash_Write_NoCheck)
    SPI_Flash_Write_Page                     0x08002dc1   Thumb Code    80  flash.o(i.SPI_Flash_Write_Page)
    SetBTABLE                                0x08002e15   Thumb Code    12  usb_regs.o(i.SetBTABLE)
    SetDeviceAddress                         0x08002e25   Thumb Code    62  usb_core.o(i.SetDeviceAddress)
    SetEPRxAddr                              0x08002e71   Thumb Code    26  usb_regs.o(i.SetEPRxAddr)
    SetEPRxCount                             0x08002e95   Thumb Code    68  usb_regs.o(i.SetEPRxCount)
    SetEPRxStatus                            0x08002ee1   Thumb Code    52  usb_regs.o(i.SetEPRxStatus)
    SetEPRxValid                             0x08002f19   Thumb Code    38  usb_regs.o(i.SetEPRxValid)
    SetEPTxAddr                              0x08002f45   Thumb Code    24  usb_regs.o(i.SetEPTxAddr)
    SetEPTxCount                             0x08002f65   Thumb Code    20  usb_regs.o(i.SetEPTxCount)
    SetEPTxStatus                            0x08002f81   Thumb Code    52  usb_regs.o(i.SetEPTxStatus)
    SetEPType                                0x08002fb9   Thumb Code    32  usb_regs.o(i.SetEPType)
    Set_CSW                                  0x08002fdd   Thumb Code    54  usb_bot.o(i.Set_CSW)
    Set_Scsi_Sense_Data                      0x08003021   Thumb Code     8  usb_scsi.o(i.Set_Scsi_Sense_Data)
    Set_USBClock                             0x0800302d   Thumb Code    24  hw_config.o(i.Set_USBClock)
    Setup0_Process                           0x08003049   Thumb Code   162  usb_core.o(i.Setup0_Process)
    Standard_ClearFeature                    0x080030f9   Thumb Code   326  usb_core.o(i.Standard_ClearFeature)
    Standard_GetConfiguration                0x08003255   Thumb Code    34  usb_core.o(i.Standard_GetConfiguration)
    Standard_GetDescriptorData               0x08003281   Thumb Code    32  usb_core.o(i.Standard_GetDescriptorData)
    Standard_GetInterface                    0x080032a5   Thumb Code    34  usb_core.o(i.Standard_GetInterface)
    Standard_GetStatus                       0x080032d1   Thumb Code   224  usb_core.o(i.Standard_GetStatus)
    Standard_SetConfiguration                0x080033c1   Thumb Code    60  usb_core.o(i.Standard_SetConfiguration)
    Standard_SetDeviceFeature                0x08003409   Thumb Code    30  usb_core.o(i.Standard_SetDeviceFeature)
    Standard_SetEndPointFeature              0x08003431   Thumb Code   176  usb_core.o(i.Standard_SetEndPointFeature)
    Standard_SetInterface                    0x080034f1   Thumb Code    96  usb_core.o(i.Standard_SetInterface)
    Stm32_Clock_Init                         0x0800355d   Thumb Code   134  sys.o(i.Stm32_Clock_Init)
    TIM3_IRQHandler                          0x080035ed   Thumb Code    40  timer.o(i.TIM3_IRQHandler)
    TIM5_IRQHandler                          0x0800361d   Thumb Code   182  timer.o(i.TIM5_IRQHandler)
    TIM6_IRQHandler                          0x080036e1   Thumb Code    42  timer.o(i.TIM6_IRQHandler)
    Transfer_Data_Request                    0x08003725   Thumb Code    54  usb_bot.o(i.Transfer_Data_Request)
    USART1_IRQHandler                        0x08003765   Thumb Code   118  usart.o(i.USART1_IRQHandler)
    USART2_IRQHandler                        0x080037e9   Thumb Code    28  usart.o(i.USART2_IRQHandler)
    USB_Cable_Config                         0x08003809   Thumb Code    18  hw_config.o(i.USB_Cable_Config)
    USB_HP_CAN1_TX_IRQHandler                0x08003821   Thumb Code     8  stm32f10x_it.o(i.USB_HP_CAN1_TX_IRQHandler)
    USB_Init                                 0x08003829   Thumb Code    36  usb_init.o(i.USB_Init)
    USB_Interrupts_Config                    0x08003865   Thumb Code    56  hw_config.o(i.USB_Interrupts_Config)
    USB_Istr                                 0x080038a1   Thumb Code    62  usb_istr.o(i.USB_Istr)
    USB_LP_CAN1_RX0_IRQHandler               0x080038f1   Thumb Code     8  stm32f10x_it.o(i.USB_LP_CAN1_RX0_IRQHandler)
    USB_NotConfigured_LED                    0x080038f9   Thumb Code     2  hw_config.o(i.USB_NotConfigured_LED)
    UserToPMABufferCopy                      0x080038fd   Thumb Code    52  usb_mem.o(i.UserToPMABufferCopy)
    Write_Memory                             0x08003935   Thumb Code   276  memory.o(i.Write_Memory)
    _sys_exit                                0x08003a79   Thumb Code     6  usart.o(i._sys_exit)
    clust2sect                               0x08003ef3   Thumb Code    26  ff.o(i.clust2sect)
    delay_init                               0x080042d9   Thumb Code    56  delay.o(i.delay_init)
    delay_ms                                 0x08004319   Thumb Code    56  delay.o(i.delay_ms)
    dir_sdi                                  0x08004795   Thumb Code   156  ff.o(i.dir_sdi)
    disk_initialize                          0x08004831   Thumb Code   112  diskio.o(i.disk_initialize)
    disk_ioctl                               0x080048a9   Thumb Code   154  diskio.o(i.disk_ioctl)
    disk_read                                0x0800494d   Thumb Code   122  diskio.o(i.disk_read)
    disk_status                              0x080049c7   Thumb Code     6  diskio.o(i.disk_status)
    disk_write                               0x080049cd   Thumb Code   102  diskio.o(i.disk_write)
    exfuns_init                              0x08004a35   Thumb Code   110  exfuns.o(i.exfuns_init)
    f_close                                  0x08004ab5   Thumb Code    22  ff.o(i.f_close)
    f_lseek                                  0x08004acb   Thumb Code   732  ff.o(i.f_lseek)
    f_mount                                  0x08004da9   Thumb Code    38  ff.o(i.f_mount)
    f_open                                   0x08004dd5   Thumb Code   380  ff.o(i.f_open)
    f_opendir                                0x08004f51   Thumb Code   138  ff.o(i.f_opendir)
    f_read                                   0x08004fdb   Thumb Code   474  ff.o(i.f_read)
    f_readdir                                0x080051b5   Thumb Code   110  ff.o(i.f_readdir)
    f_sync                                   0x08005223   Thumb Code   176  ff.o(i.f_sync)
    f_write                                  0x080052d3   Thumb Code   542  ff.o(i.f_write)
    ff_convert                               0x080054f1   Thumb Code   146  mycc936.o(i.ff_convert)
    ff_memalloc                              0x08005589   Thumb Code    14  diskio.o(i.ff_memalloc)
    ff_memfree                               0x08005597   Thumb Code    14  diskio.o(i.ff_memfree)
    ff_wtoupper                              0x080055a5   Thumb Code    46  mycc936.o(i.ff_wtoupper)
    fputc                                    0x080056f1   Thumb Code    22  usart.o(i.fputc)
    gen_numname                              0x08005711   Thumb Code   190  ff.o(i.gen_numname)
    get_fat                                  0x080057cf   Thumb Code   228  ff.o(i.get_fat)
    get_fattime                              0x080058b3   Thumb Code     4  diskio.o(i.get_fattime)
    low_fix_trans_bug                        0x08005a15   Thumb Code    46  lower.o(i.low_fix_trans_bug)
    low_fix_trans_bug_read_byte              0x08005a55   Thumb Code    34  lower.o(i.low_fix_trans_bug_read_byte)
    low_fix_trans_bug_read_byte_ack          0x08005a89   Thumb Code    20  lower.o(i.low_fix_trans_bug_read_byte_ack)
    lower_get_state                          0x08005aa9   Thumb Code     6  lower.o(i.lower_get_state)
    lower_set_state                          0x08005ab5   Thumb Code     6  lower.o(i.lower_set_state)
    lower_uart_reset                         0x08005ac1   Thumb Code    36  lower.o(i.lower_uart_reset)
    lower_uart_rx                            0x08005b01   Thumb Code    90  lower.o(i.lower_uart_rx)
    lower_uart_rx_ack                        0x08005b65   Thumb Code    98  lower.o(i.lower_uart_rx_ack)
    lower_uart_rx_content                    0x08005bdd   Thumb Code    56  lower.o(i.lower_uart_rx_content)
    lower_uart_rx_hand_shake                 0x08005c25   Thumb Code    88  lower.o(i.lower_uart_rx_hand_shake)
    lower_uart_rx_idle                       0x08005c95   Thumb Code    92  lower.o(i.lower_uart_rx_idle)
    lower_uart_tx                            0x08005d09   Thumb Code    82  lower.o(i.lower_uart_tx)
    lower_uart_tx_bin                        0x08005d5d   Thumb Code   404  lower.o(i.lower_uart_tx_bin)
    lower_uart_tx_disconnect                 0x08005f19   Thumb Code    28  lower.o(i.lower_uart_tx_disconnect)
    main                                     0x08005f41   Thumb Code   764  main.o(i.main)
    mem_free                                 0x080062d9   Thumb Code    96  malloc.o(i.mem_free)
    mem_init                                 0x08006345   Thumb Code    54  malloc.o(i.mem_init)
    mem_malloc                               0x08006389   Thumb Code   164  malloc.o(i.mem_malloc)
    mem_perused                              0x08006439   Thumb Code    54  malloc.o(i.mem_perused)
    myfree                                   0x08006501   Thumb Code    30  malloc.o(i.myfree)
    mymalloc                                 0x08006525   Thumb Code    34  malloc.o(i.mymalloc)
    mymemset                                 0x0800654d   Thumb Code    20  malloc.o(i.mymemset)
    power_control_pin_init                   0x080065d5   Thumb Code    42  power_control.o(i.power_control_pin_init)
    power_control_pin_off                    0x08006609   Thumb Code    14  power_control.o(i.power_control_pin_off)
    power_control_pin_on                     0x0800661d   Thumb Code    14  power_control.o(i.power_control_pin_on)
    put_fat                                  0x08006631   Thumb Code   310  ff.o(i.put_fat)
    uart2_tx                                 0x080068c9   Thumb Code    22  usart.o(i.uart2_tx)
    uart_init                                0x080068e5   Thumb Code   324  usart.o(i.uart_init)
    uart_tx                                  0x08006a3d   Thumb Code    28  lower.o(i.uart_tx)
    usb_port_set                             0x08006a59   Thumb Code    74  main.o(i.usb_port_set)
    __aeabi_fadd                             0x08006ae9   Thumb Code     0  faddsub_clz.o(x$fpl$fadd)
    _fadd                                    0x08006ae9   Thumb Code   196  faddsub_clz.o(x$fpl$fadd)
    __aeabi_fdiv                             0x08006bad   Thumb Code     0  fdiv.o(x$fpl$fdiv)
    _fdiv                                    0x08006bad   Thumb Code   384  fdiv.o(x$fpl$fdiv)
    __aeabi_f2uiz                            0x08006d31   Thumb Code     0  ffixu.o(x$fpl$ffixu)
    _ffixu                                   0x08006d31   Thumb Code    62  ffixu.o(x$fpl$ffixu)
    __aeabi_ui2f                             0x08006d71   Thumb Code     0  fflt_clz.o(x$fpl$ffltu)
    _ffltu                                   0x08006d71   Thumb Code    38  fflt_clz.o(x$fpl$ffltu)
    __aeabi_fmul                             0x08006d99   Thumb Code     0  fmul.o(x$fpl$fmul)
    _fmul                                    0x08006d99   Thumb Code   258  fmul.o(x$fpl$fmul)
    __fpl_fnaninf                            0x08006e9b   Thumb Code   140  fnaninf.o(x$fpl$fnaninf)
    __fpl_fretinf                            0x08006f27   Thumb Code    10  fretinf.o(x$fpl$fretinf)
    __aeabi_frsub                            0x08006f31   Thumb Code     0  faddsub_clz.o(x$fpl$frsb)
    _frsb                                    0x08006f31   Thumb Code    20  faddsub_clz.o(x$fpl$frsb)
    __aeabi_fsub                             0x08006f45   Thumb Code     0  faddsub_clz.o(x$fpl$fsub)
    _fsub                                    0x08006f45   Thumb Code   234  faddsub_clz.o(x$fpl$fsub)
    __I$use$fp                               0x0800702e   Number         0  usenofp.o(x$fpl$usenofp)
    memtblsize                               0x08007030   Data           8  malloc.o(.constdata)
    memblksize                               0x08007038   Data           8  malloc.o(.constdata)
    memsize                                  0x08007040   Data           8  malloc.o(.constdata)
    MASS_DeviceDescriptor                    0x08007048   Data          18  usb_desc.o(.constdata)
    MASS_ConfigDescriptor                    0x0800705a   Data          32  usb_desc.o(.constdata)
    MASS_StringLangID                        0x0800707a   Data           4  usb_desc.o(.constdata)
    MASS_StringVendor                        0x0800707e   Data          26  usb_desc.o(.constdata)
    MASS_StringProduct                       0x08007098   Data          32  usb_desc.o(.constdata)
    MASS_StringInterface                     0x080070b8   Data          16  usb_desc.o(.constdata)
    boot_conn_ack                            0x080074c2   Data           9  lower.o(.constdata)
    boot_conn_req                            0x080074cb   Data           7  lower.o(.constdata)
    boot_conn_success                        0x080074d2   Data           7  lower.o(.constdata)
    bd_addr_offset                           0x080074d9   Data           6  lower.o(.constdata)
    Region$$Table$$Base                      0x0800756c   Number         0  anon$$obj.o(Region$$Table)
    Region$$Table$$Limit                     0x0800758c   Number         0  anon$$obj.o(Region$$Table)
    SPI_FLASH_TYPE                           0x20000000   Data           2  flash.o(.data)
    TIM5CH1_CAPTURE_STA                      0x20000002   Data           1  timer.o(.data)
    TIM5CH1_CAPTURE_VAL                      0x20000004   Data           2  timer.o(.data)
    ov_frame                                 0x20000006   Data           1  timer.o(.data)
    SD_Type                                  0x20000007   Data           1  mmc_sd.o(.data)
    key1_pressed                             0x20000008   Data           1  exti.o(.data)
    key2_pressed                             0x20000009   Data           1  exti.o(.data)
    key3_pressed                             0x2000000a   Data           1  exti.o(.data)
    mallco_dev                               0x2000000c   Data          28  malloc.o(.data)
    __stdout                                 0x2000002c   Data           4  usart.o(.data)
    USART_RX_STA                             0x20000030   Data           2  usart.o(.data)
    Mass_Block_Size                          0x20000034   Data           8  mass_mal.o(.data)
    Mass_Block_Count                         0x2000003c   Data           8  mass_mal.o(.data)
    Block_Read_count                         0x20000044   Data           4  memory.o(.data)
    Block_offset                             0x20000048   Data           4  memory.o(.data)
    Counter                                  0x2000004c   Data           4  memory.o(.data)
    Idx                                      0x20000050   Data           4  memory.o(.data)
    TransferState                            0x20000054   Data           1  memory.o(.data)
    USB_STATUS_REG                           0x20000055   Data           1  memory.o(.data)
    Page00_Inquiry_Data                      0x20000068   Data           5  scsi_data.o(.data)
    Standard_Inquiry_Data                    0x2000006d   Data          37  scsi_data.o(.data)
    Standard_Inquiry_Data2                   0x20000092   Data          36  scsi_data.o(.data)
    Mode_Sense6_data                         0x200000b6   Data           4  scsi_data.o(.data)
    Mode_Sense10_data                        0x200000ba   Data           8  scsi_data.o(.data)
    Scsi_Sense_Data                          0x200000c2   Data          18  scsi_data.o(.data)
    ReadCapacity10_Data                      0x200000d4   Data           8  scsi_data.o(.data)
    ReadFormatCapacity_Data                  0x200000dc   Data          12  scsi_data.o(.data)
    Bot_State                                0x200000e8   Data           1  usb_bot.o(.data)
    Data_Len                                 0x200000ea   Data           2  usb_bot.o(.data)
    SCSI_LBA                                 0x200000ec   Data           4  usb_bot.o(.data)
    SCSI_BlkLen                              0x200000f0   Data           4  usb_bot.o(.data)
    MASS_StringSerial                        0x200000f4   Data          26  usb_desc.o(.data)
    wIstr                                    0x20000110   Data           2  usb_istr.o(.data)
    bIntPackSOF                              0x20000112   Data           1  usb_istr.o(.data)
    pEpInt_IN                                0x20000114   Data          28  usb_istr.o(.data)
    pEpInt_OUT                               0x20000130   Data          28  usb_istr.o(.data)
    Max_Lun                                  0x2000014c   Data           4  usb_prop.o(.data)
    Device_Table                             0x20000150   Data           2  usb_prop.o(.data)
    Device_Property                          0x20000154   Data          48  usb_prop.o(.data)
    User_Standard_Requests                   0x20000184   Data          36  usb_prop.o(.data)
    Device_Descriptor                        0x200001a8   Data           8  usb_prop.o(.data)
    Config_Descriptor                        0x200001b0   Data           8  usb_prop.o(.data)
    String_Descriptor                        0x200001b8   Data          40  usb_prop.o(.data)
    bDeviceState                             0x200001e0   Data           4  usb_pwr.o(.data)
    fSuspendEnabled                          0x200001e4   Data           1  usb_pwr.o(.data)
    ResumeS                                  0x200001e5   Data           2  usb_pwr.o(.data)
    StatusInfo                               0x200001e8   Data           2  usb_core.o(.data)
    Data_Mul_MaxPacketSize                   0x200001ea   Data           1  usb_core.o(.data)
    EPindex                                  0x200001ec   Data           1  usb_init.o(.data)
    pInformation                             0x200001f0   Data           4  usb_init.o(.data)
    pProperty                                0x200001f4   Data           4  usb_init.o(.data)
    SaveState                                0x200001f8   Data           2  usb_init.o(.data)
    wInterrupt_Mask                          0x200001fa   Data           2  usb_init.o(.data)
    pUser_Standard_Requests                  0x200001fc   Data           4  usb_init.o(.data)
    SaveRState                               0x20000200   Data           2  usb_int.o(.data)
    SaveTState                               0x20000202   Data           2  usb_int.o(.data)
    bd_addr                                  0x20000204   Data           6  main.o(.data)
    f_hid_bin                                0x2000020c   Data           4  main.o(.data)
    FLASH_SECTOR_COUNT                       0x20000210   Data           2  diskio.o(.data)
    FILE_TYPE_TBL                            0x20000214   Data         312  exfuns.o(.data)
    fs                                       0x2000034c   Data           8  exfuns.o(.data)
    file                                     0x20000354   Data           4  exfuns.o(.data)
    ftemp                                    0x20000358   Data           4  exfuns.o(.data)
    br                                       0x2000035c   Data           4  exfuns.o(.data)
    bw                                       0x20000360   Data           4  exfuns.o(.data)
    fatbuf                                   0x20000364   Data           4  exfuns.o(.data)
    lower_state                              0x20000374   Data           1  lower.o(.data)
    device_type                              0x20000375   Data           1  lower.o(.data)
    current_received_count                   0x20000378   Data           4  lower.o(.data)
    lower_uart_finish_callback               0x2000037c   Data           4  lower.o(.data)
    current_tx_index                         0x20000380   Data           4  lower.o(.data)
    lower_tx_buffer                          0x20000384   Data           4  lower.o(.data)
    read_total_count                         0x20000388   Data           4  lower.o(.data)
    lower_rx_buffer                          0x2000038c   Data           4  lower.o(.data)
    read_wait_for_header                     0x20000390   Data           1  lower.o(.data)
    boot_req_receive_buffer                  0x20000391   Data           7  lower.o(.data)
    SPI_FLASH_BUFFER                         0x2000039c   Data        4096  flash.o(.bss)
    mem1base                                 0x2000139c   Data       40960  malloc.o(.bss)
    mem1mapbase                              0x2000b39c   Data        2560  malloc.o(.bss)
    USART_RX_BUF                             0x2000bd9c   Data         200  usart.o(.bss)
    Mass_Memory_Size                         0x2000be68   Data          16  mass_mal.o(.bss)
    Data_Buffer                              0x2000be78   Data         512  memory.o(.bss)
    Bulk_Data_Buff                           0x2000c078   Data          64  usb_bot.o(.bss)
    CBW                                      0x2000c0b8   Data          32  usb_bot.o(.bss)
    CSW                                      0x2000c0d8   Data          16  usb_bot.o(.bss)
    Device_Info                              0x2000c0e8   Data          28  usb_init.o(.bss)
    ftinfo                                   0x2000c124   Data          25  fontupd.o(.bss)
    __libspace_start                         0x2000c148   Data          96  libspace.o(.bss)
    __temporary_stack_top$libspace           0x2000c1a8   Data           0  libspace.o(.bss)
    mem2base                                 0x68000000   Data       204800  malloc.o(.ARM.__AT_0x68000000)
    mem2mapbase                              0x68032000   Data       12800  malloc.o(.ARM.__AT_0x68032000)



==============================================================================

Memory Map of the image

  Image Entry point : 0x08000131

  Load Region LR_IROM1 (Base: 0x08000000, Size: 0x00007928, Max: 0x00080000, ABSOLUTE, COMPRESSED[0x000076b4])

    Execution Region ER_IROM1 (Base: 0x08000000, Size: 0x0000758c, Max: 0x00080000, ABSOLUTE)

    Base Addr    Size         Type   Attr      Idx    E Section Name        Object

    0x08000000   0x00000130   Data   RO            3    RESET               startup_stm32f10x_hd.o
    0x08000130   0x00000008   Code   RO         2594  * !!!main             c_w.l(__main.o)
    0x08000138   0x00000034   Code   RO         2805    !!!scatter          c_w.l(__scatter.o)
    0x0800016c   0x0000005a   Code   RO         2803    !!dczerorl2         c_w.l(__dczerorl2.o)
    0x080001c6   0x00000002   PAD
    0x080001c8   0x0000001c   Code   RO         2807    !!handler_zi        c_w.l(__scatter_zi.o)
    0x080001e4   0x00000000   Code   RO         2583    .ARM.Collect$$_printf_percent$$00000000  c_w.l(_printf_percent.o)
    0x080001e4   0x00000006   Code   RO         2582    .ARM.Collect$$_printf_percent$$00000009  c_w.l(_printf_d.o)
    0x080001ea   0x00000006   Code   RO         2581    .ARM.Collect$$_printf_percent$$0000000C  c_w.l(_printf_x.o)
    0x080001f0   0x00000004   Code   RO         2627    .ARM.Collect$$_printf_percent$$00000017  c_w.l(_printf_percent_end.o)
    0x080001f4   0x00000002   Code   RO         2673    .ARM.Collect$$libinit$$00000000  c_w.l(libinit.o)
    0x080001f6   0x00000000   Code   RO         2684    .ARM.Collect$$libinit$$00000002  c_w.l(libinit2.o)
    0x080001f6   0x00000000   Code   RO         2686    .ARM.Collect$$libinit$$00000004  c_w.l(libinit2.o)
    0x080001f6   0x00000000   Code   RO         2689    .ARM.Collect$$libinit$$0000000A  c_w.l(libinit2.o)
    0x080001f6   0x00000000   Code   RO         2691    .ARM.Collect$$libinit$$0000000C  c_w.l(libinit2.o)
    0x080001f6   0x00000000   Code   RO         2693    .ARM.Collect$$libinit$$0000000E  c_w.l(libinit2.o)
    0x080001f6   0x00000000   Code   RO         2696    .ARM.Collect$$libinit$$00000011  c_w.l(libinit2.o)
    0x080001f6   0x00000000   Code   RO         2698    .ARM.Collect$$libinit$$00000013  c_w.l(libinit2.o)
    0x080001f6   0x00000000   Code   RO         2700    .ARM.Collect$$libinit$$00000015  c_w.l(libinit2.o)
    0x080001f6   0x00000000   Code   RO         2702    .ARM.Collect$$libinit$$00000017  c_w.l(libinit2.o)
    0x080001f6   0x00000000   Code   RO         2704    .ARM.Collect$$libinit$$00000019  c_w.l(libinit2.o)
    0x080001f6   0x00000000   Code   RO         2706    .ARM.Collect$$libinit$$0000001B  c_w.l(libinit2.o)
    0x080001f6   0x00000000   Code   RO         2708    .ARM.Collect$$libinit$$0000001D  c_w.l(libinit2.o)
    0x080001f6   0x00000000   Code   RO         2710    .ARM.Collect$$libinit$$0000001F  c_w.l(libinit2.o)
    0x080001f6   0x00000000   Code   RO         2712    .ARM.Collect$$libinit$$00000021  c_w.l(libinit2.o)
    0x080001f6   0x00000000   Code   RO         2714    .ARM.Collect$$libinit$$00000023  c_w.l(libinit2.o)
    0x080001f6   0x00000000   Code   RO         2716    .ARM.Collect$$libinit$$00000025  c_w.l(libinit2.o)
    0x080001f6   0x00000000   Code   RO         2720    .ARM.Collect$$libinit$$0000002C  c_w.l(libinit2.o)
    0x080001f6   0x00000000   Code   RO         2722    .ARM.Collect$$libinit$$0000002E  c_w.l(libinit2.o)
    0x080001f6   0x00000000   Code   RO         2724    .ARM.Collect$$libinit$$00000030  c_w.l(libinit2.o)
    0x080001f6   0x00000000   Code   RO         2726    .ARM.Collect$$libinit$$00000032  c_w.l(libinit2.o)
    0x080001f6   0x00000002   Code   RO         2727    .ARM.Collect$$libinit$$00000033  c_w.l(libinit2.o)
    0x080001f8   0x00000002   Code   RO         2755    .ARM.Collect$$libshutdown$$00000000  c_w.l(libshutdown.o)
    0x080001fa   0x00000000   Code   RO         2769    .ARM.Collect$$libshutdown$$00000002  c_w.l(libshutdown2.o)
    0x080001fa   0x00000000   Code   RO         2771    .ARM.Collect$$libshutdown$$00000004  c_w.l(libshutdown2.o)
    0x080001fa   0x00000000   Code   RO         2774    .ARM.Collect$$libshutdown$$00000007  c_w.l(libshutdown2.o)
    0x080001fa   0x00000000   Code   RO         2777    .ARM.Collect$$libshutdown$$0000000A  c_w.l(libshutdown2.o)
    0x080001fa   0x00000000   Code   RO         2779    .ARM.Collect$$libshutdown$$0000000C  c_w.l(libshutdown2.o)
    0x080001fa   0x00000000   Code   RO         2782    .ARM.Collect$$libshutdown$$0000000F  c_w.l(libshutdown2.o)
    0x080001fa   0x00000002   Code   RO         2783    .ARM.Collect$$libshutdown$$00000010  c_w.l(libshutdown2.o)
    0x080001fc   0x00000000   Code   RO         2620    .ARM.Collect$$rtentry$$00000000  c_w.l(__rtentry.o)
    0x080001fc   0x00000000   Code   RO         2636    .ARM.Collect$$rtentry$$00000002  c_w.l(__rtentry2.o)
    0x080001fc   0x00000006   Code   RO         2648    .ARM.Collect$$rtentry$$00000004  c_w.l(__rtentry4.o)
    0x08000202   0x00000000   Code   RO         2638    .ARM.Collect$$rtentry$$00000009  c_w.l(__rtentry2.o)
    0x08000202   0x00000004   Code   RO         2639    .ARM.Collect$$rtentry$$0000000A  c_w.l(__rtentry2.o)
    0x08000206   0x00000000   Code   RO         2641    .ARM.Collect$$rtentry$$0000000C  c_w.l(__rtentry2.o)
    0x08000206   0x00000008   Code   RO         2642    .ARM.Collect$$rtentry$$0000000D  c_w.l(__rtentry2.o)
    0x0800020e   0x00000002   Code   RO         2677    .ARM.Collect$$rtexit$$00000000  c_w.l(rtexit.o)
    0x08000210   0x00000000   Code   RO         2729    .ARM.Collect$$rtexit$$00000002  c_w.l(rtexit2.o)
    0x08000210   0x00000004   Code   RO         2730    .ARM.Collect$$rtexit$$00000003  c_w.l(rtexit2.o)
    0x08000214   0x00000006   Code   RO         2731    .ARM.Collect$$rtexit$$00000004  c_w.l(rtexit2.o)
    0x0800021a   0x00000002   PAD
    0x0800021c   0x00000048   Code   RO            4    .text               startup_stm32f10x_hd.o
    0x08000264   0x00000002   Code   RO         2528    .text               c_w.l(use_no_semi_2.o)
    0x08000266   0x00000048   Code   RO         2530    .text               c_w.l(llsdiv.o)
    0x080002ae   0x00000002   PAD
    0x080002b0   0x00000018   Code   RO         2534    .text               c_w.l(noretval__2printf.o)
    0x080002c8   0x00000068   Code   RO         2536    .text               c_w.l(__printf.o)
    0x08000330   0x00000078   Code   RO         2538    .text               c_w.l(_printf_dec.o)
    0x080003a8   0x00000058   Code   RO         2543    .text               c_w.l(_printf_hex_int.o)
    0x08000400   0x00000058   Code   RO         2584    .text               c_w.l(memcmp.o)
    0x08000458   0x0000008a   Code   RO         2588    .text               c_w.l(rt_memcpy_v6.o)
    0x080004e2   0x00000006   Code   RO         2592    .text               c_w.l(heapauxi.o)
    0x080004e8   0x00000002   Code   RO         2618    .text               c_w.l(use_no_semi.o)
    0x080004ea   0x000000ee   Code   RO         2621    .text               c_w.l(lludivv7m.o)
    0x080005d8   0x000000b2   Code   RO         2623    .text               c_w.l(_printf_intcommon.o)
    0x0800068a   0x00000002   PAD
    0x0800068c   0x00000024   Code   RO         2625    .text               c_w.l(_printf_char_file.o)
    0x080006b0   0x00000064   Code   RO         2628    .text               c_w.l(rt_memcpy_w.o)
    0x08000714   0x00000030   Code   RO         2654    .text               c_w.l(_printf_char_common.o)
    0x08000744   0x00000008   Code   RO         2656    .text               c_w.l(ferror.o)
    0x0800074c   0x0000004a   Code   RO         2660    .text               c_w.l(sys_stackheap_outer.o)
    0x08000796   0x00000012   Code   RO         2666    .text               c_w.l(exit.o)
    0x080007a8   0x00000008   Code   RO         2674    .text               c_w.l(libspace.o)
    0x080007b0   0x00000040   Code   RO          990    i.Bot_Abort         usb_bot.o
    0x080007f0   0x0000000c   Code   RO         1548    i.ByteSwap          usb_regs.o
    0x080007fc   0x000002c4   Code   RO          991    i.CBW_Decode        usb_bot.o
    0x08000ac0   0x000000c8   Code   RO         1500    i.CTR_HP            usb_int.o
    0x08000b88   0x00000328   Code   RO         1501    i.CTR_LP            usb_int.o
    0x08000eb0   0x00000034   Code   RO         1549    i.ClearDTOG_RX      usb_regs.o
    0x08000ee4   0x00000034   Code   RO         1550    i.ClearDTOG_TX      usb_regs.o
    0x08000f18   0x00000020   Code   RO         1555    i.Clear_Status_Out  usb_regs.o
    0x08000f38   0x000000c0   Code   RO         1358    i.DataStageIn       usb_core.o
    0x08000ff8   0x000000bc   Code   RO         1359    i.DataStageOut      usb_core.o
    0x080010b4   0x00000298   Code   RO         1360    i.Data_Setup0       usb_core.o
    0x0800134c   0x00000008   Code   RO         1050    i.EP1_IN_Callback   usb_endp.o
    0x08001354   0x00000008   Code   RO         1051    i.EP2_OUT_Callback  usb_endp.o
    0x0800135c   0x00000028   Code   RO          398    i.EXTI3_IRQHandler  exti.o
    0x08001384   0x00000028   Code   RO          399    i.EXTI4_IRQHandler  exti.o
    0x080013ac   0x00000028   Code   RO          400    i.EXTI9_5_IRQHandler  exti.o
    0x080013d4   0x0000008c   Code   RO          401    i.EXTIX_Init        exti.o
    0x08001460   0x000000a0   Code   RO          555    i.Ex_NVIC_Config    sys.o
    0x08001500   0x00000020   Code   RO         1567    i.GetEPRxAddr       usb_regs.o
    0x08001520   0x00000024   Code   RO         1568    i.GetEPRxCount      usb_regs.o
    0x08001544   0x00000020   Code   RO         1570    i.GetEPTxAddr       usb_regs.o
    0x08001564   0x0000001c   Code   RO         1108    i.Get_Max_Lun       usb_prop.o
    0x08001580   0x00000048   Code   RO          678    i.Get_SerialNum     hw_config.o
    0x080015c8   0x00000070   Code   RO         1361    i.In0_Process       usb_core.o
    0x08001638   0x0000003c   Code   RO          272    i.LED_Init          led.o
    0x08001674   0x0000000c   Code   RO          680    i.Led_RW_OFF        hw_config.o
    0x08001680   0x0000000c   Code   RO          681    i.Led_RW_ON         hw_config.o
    0x0800168c   0x0000001e   Code   RO          777    i.MAL_GetStatus     mass_mal.o
    0x080016aa   0x00000042   Code   RO          779    i.MAL_Read          mass_mal.o
    0x080016ec   0x00000042   Code   RO          780    i.MAL_Write         mass_mal.o
    0x0800172e   0x00000002   PAD
    0x08001730   0x00000060   Code   RO         1109    i.MASS_Data_Setup   usb_prop.o
    0x08001790   0x00000014   Code   RO         1110    i.MASS_GetConfigDescriptor  usb_prop.o
    0x080017a4   0x00000014   Code   RO         1111    i.MASS_GetDeviceDescriptor  usb_prop.o
    0x080017b8   0x00000028   Code   RO         1112    i.MASS_GetStringDescriptor  usb_prop.o
    0x080017e0   0x00000016   Code   RO         1113    i.MASS_Get_Interface_Setting  usb_prop.o
    0x080017f6   0x00000002   PAD
    0x080017f8   0x0000005c   Code   RO         1114    i.MASS_NoData_Setup  usb_prop.o
    0x08001854   0x000000f0   Code   RO         1115    i.MASS_Reset        usb_prop.o
    0x08001944   0x00000002   Code   RO         1116    i.MASS_Status_In    usb_prop.o
    0x08001946   0x00000002   Code   RO         1117    i.MASS_Status_Out   usb_prop.o
    0x08001948   0x00000044   Code   RO         1118    i.MASS_init         usb_prop.o
    0x0800198c   0x00000068   Code   RO          557    i.MYRCC_DeInit      sys.o
    0x080019f4   0x00000098   Code   RO          558    i.MY_NVIC_Init      sys.o
    0x08001a8c   0x00000028   Code   RO          559    i.MY_NVIC_PriorityGroupConfig  sys.o
    0x08001ab4   0x00000014   Code   RO          560    i.MY_NVIC_SetVectorTable  sys.o
    0x08001ac8   0x0000001c   Code   RO         1119    i.Mass_Storage_ClearFeature  usb_prop.o
    0x08001ae4   0x00000090   Code   RO          992    i.Mass_Storage_In   usb_bot.o
    0x08001b74   0x000000b4   Code   RO          993    i.Mass_Storage_Out  usb_bot.o
    0x08001c28   0x00000030   Code   RO         1120    i.Mass_Storage_SetConfiguration  usb_prop.o
    0x08001c58   0x0000000c   Code   RO         1121    i.Mass_Storage_SetDeviceAddress  usb_prop.o
    0x08001c64   0x00000002   Code   RO         1362    i.NOP_Process       usb_core.o
    0x08001c66   0x00000002   PAD
    0x08001c68   0x00000144   Code   RO         1363    i.NoData_Setup0     usb_core.o
    0x08001dac   0x00000050   Code   RO         1364    i.Out0_Process      usb_core.o
    0x08001dfc   0x00000028   Code   RO         1530    i.PMAToUserBufferCopy  usb_mem.o
    0x08001e24   0x00000048   Code   RO         1365    i.Post0_Process     usb_core.o
    0x08001e6c   0x00000040   Code   RO         1214    i.PowerOn           usb_pwr.o
    0x08001eac   0x00000124   Code   RO          822    i.Read_Memory       memory.o
    0x08001fd0   0x0000008c   Code   RO         1255    i.SCSI_Address_Management  usb_scsi.o
    0x0800205c   0x00000030   Code   RO         1256    i.SCSI_Format_Cmd   usb_scsi.o
    0x0800208c   0x00000048   Code   RO         1257    i.SCSI_Inquiry_Cmd  usb_scsi.o
    0x080020d4   0x00000044   Code   RO         1258    i.SCSI_Invalid_Cmd  usb_scsi.o
    0x08002118   0x00000014   Code   RO         1259    i.SCSI_ModeSense10_Cmd  usb_scsi.o
    0x0800212c   0x00000014   Code   RO         1260    i.SCSI_ModeSense6_Cmd  usb_scsi.o
    0x08002140   0x00000078   Code   RO         1261    i.SCSI_Read10_Cmd   usb_scsi.o
    0x080021b8   0x0000009c   Code   RO         1262    i.SCSI_ReadCapacity10_Cmd  usb_scsi.o
    0x08002254   0x00000088   Code   RO         1263    i.SCSI_ReadFormatCapacity_Cmd  usb_scsi.o
    0x080022dc   0x00000028   Code   RO         1264    i.SCSI_RequestSense_Cmd  usb_scsi.o
    0x08002304   0x0000000e   Code   RO         1265    i.SCSI_Start_Stop_Unit_Cmd  usb_scsi.o
    0x08002312   0x00000002   PAD
    0x08002314   0x00000038   Code   RO         1266    i.SCSI_TestUnitReady_Cmd  usb_scsi.o
    0x0800234c   0x00000040   Code   RO         1268    i.SCSI_Verify10_Cmd  usb_scsi.o
    0x0800238c   0x00000078   Code   RO         1269    i.SCSI_Write10_Cmd  usb_scsi.o
    0x08002404   0x00000014   Code   RO          284    i.SD_DisSelect      mmc_sd.o
    0x08002418   0x0000002a   Code   RO          286    i.SD_GetCSD         mmc_sd.o
    0x08002442   0x00000026   Code   RO          287    i.SD_GetResponse    mmc_sd.o
    0x08002468   0x00000076   Code   RO          288    i.SD_GetSectorCount  mmc_sd.o
    0x080024de   0x00000002   PAD
    0x080024e0   0x00000188   Code   RO          289    i.SD_Initialize     mmc_sd.o
    0x08002668   0x00000074   Code   RO          290    i.SD_ReadDisk       mmc_sd.o
    0x080026dc   0x00000038   Code   RO          291    i.SD_RecvData       mmc_sd.o
    0x08002714   0x000000b0   Code   RO          292    i.SD_SPI_Init       mmc_sd.o
    0x080027c4   0x0000000c   Code   RO          293    i.SD_SPI_ReadWriteByte  mmc_sd.o
    0x080027d0   0x0000000a   Code   RO          294    i.SD_SPI_SpeedHigh  mmc_sd.o
    0x080027da   0x0000000a   Code   RO          295    i.SD_SPI_SpeedLow   mmc_sd.o
    0x080027e4   0x00000020   Code   RO          296    i.SD_Select         mmc_sd.o
    0x08002804   0x00000052   Code   RO          297    i.SD_SendBlock      mmc_sd.o
    0x08002856   0x00000078   Code   RO          298    i.SD_SendCmd        mmc_sd.o
    0x080028ce   0x00000022   Code   RO          299    i.SD_WaitReady      mmc_sd.o
    0x080028f0   0x00000090   Code   RO          300    i.SD_WriteDisk      mmc_sd.o
    0x08002980   0x000000b4   Code   RO          146    i.SPI2_Init         spi.o
    0x08002a34   0x00000058   Code   RO          147    i.SPI2_ReadWriteByte  spi.o
    0x08002a8c   0x0000002c   Code   RO          148    i.SPI2_SetSpeed     spi.o
    0x08002ab8   0x00000020   Code   RO           11    i.SPI_FLASH_Write_Enable  flash.o
    0x08002ad8   0x00000058   Code   RO           14    i.SPI_Flash_Erase_Sector  flash.o
    0x08002b30   0x000000b8   Code   RO           15    i.SPI_Flash_Init    flash.o
    0x08002be8   0x00000050   Code   RO           17    i.SPI_Flash_Read    flash.o
    0x08002c38   0x00000048   Code   RO           18    i.SPI_Flash_ReadID  flash.o
    0x08002c80   0x0000002c   Code   RO           19    i.SPI_Flash_ReadSR  flash.o
    0x08002cac   0x00000012   Code   RO           21    i.SPI_Flash_Wait_Busy  flash.o
    0x08002cbe   0x00000002   PAD
    0x08002cc0   0x000000b8   Code   RO           22    i.SPI_Flash_Write   flash.o
    0x08002d78   0x00000046   Code   RO           23    i.SPI_Flash_Write_NoCheck  flash.o
    0x08002dbe   0x00000002   PAD
    0x08002dc0   0x00000054   Code   RO           24    i.SPI_Flash_Write_Page  flash.o
    0x08002e14   0x00000010   Code   RO         1578    i.SetBTABLE         usb_regs.o
    0x08002e24   0x0000004c   Code   RO         1366    i.SetDeviceAddress  usb_core.o
    0x08002e70   0x00000024   Code   RO         1592    i.SetEPRxAddr       usb_regs.o
    0x08002e94   0x0000004c   Code   RO         1593    i.SetEPRxCount      usb_regs.o
    0x08002ee0   0x00000038   Code   RO         1594    i.SetEPRxStatus     usb_regs.o
    0x08002f18   0x0000002c   Code   RO         1595    i.SetEPRxValid      usb_regs.o
    0x08002f44   0x00000020   Code   RO         1596    i.SetEPTxAddr       usb_regs.o
    0x08002f64   0x0000001c   Code   RO         1597    i.SetEPTxCount      usb_regs.o
    0x08002f80   0x00000038   Code   RO         1598    i.SetEPTxStatus     usb_regs.o
    0x08002fb8   0x00000024   Code   RO         1600    i.SetEPType         usb_regs.o
    0x08002fdc   0x00000044   Code   RO          994    i.Set_CSW           usb_bot.o
    0x08003020   0x0000000c   Code   RO         1270    i.Set_Scsi_Sense_Data  usb_scsi.o
    0x0800302c   0x0000001c   Code   RO          683    i.Set_USBClock      hw_config.o
    0x08003048   0x000000b0   Code   RO         1367    i.Setup0_Process    usb_core.o
    0x080030f8   0x0000015c   Code   RO         1368    i.Standard_ClearFeature  usb_core.o
    0x08003254   0x0000002c   Code   RO         1369    i.Standard_GetConfiguration  usb_core.o
    0x08003280   0x00000024   Code   RO         1370    i.Standard_GetDescriptorData  usb_core.o
    0x080032a4   0x0000002c   Code   RO         1371    i.Standard_GetInterface  usb_core.o
    0x080032d0   0x000000f0   Code   RO         1372    i.Standard_GetStatus  usb_core.o
    0x080033c0   0x00000048   Code   RO         1373    i.Standard_SetConfiguration  usb_core.o
    0x08003408   0x00000028   Code   RO         1374    i.Standard_SetDeviceFeature  usb_core.o
    0x08003430   0x000000c0   Code   RO         1375    i.Standard_SetEndPointFeature  usb_core.o
    0x080034f0   0x0000006c   Code   RO         1376    i.Standard_SetInterface  usb_core.o
    0x0800355c   0x00000090   Code   RO          561    i.Stm32_Clock_Init  sys.o
    0x080035ec   0x00000030   Code   RO          209    i.TIM3_IRQHandler   timer.o
    0x0800361c   0x000000c4   Code   RO          214    i.TIM5_IRQHandler   timer.o
    0x080036e0   0x00000044   Code   RO          215    i.TIM6_IRQHandler   timer.o
    0x08003724   0x00000040   Code   RO          995    i.Transfer_Data_Request  usb_bot.o
    0x08003764   0x00000084   Code   RO          618    i.USART1_IRQHandler  usart.o
    0x080037e8   0x00000020   Code   RO          619    i.USART2_IRQHandler  usart.o
    0x08003808   0x00000018   Code   RO          684    i.USB_Cable_Config  hw_config.o
    0x08003820   0x00000008   Code   RO          950    i.USB_HP_CAN1_TX_IRQHandler  stm32f10x_it.o
    0x08003828   0x0000003c   Code   RO         1477    i.USB_Init          usb_init.o
    0x08003864   0x0000003c   Code   RO          687    i.USB_Interrupts_Config  hw_config.o
    0x080038a0   0x00000050   Code   RO         1086    i.USB_Istr          usb_istr.o
    0x080038f0   0x00000008   Code   RO          951    i.USB_LP_CAN1_RX0_IRQHandler  stm32f10x_it.o
    0x080038f8   0x00000002   Code   RO          688    i.USB_NotConfigured_LED  hw_config.o
    0x080038fa   0x00000002   PAD
    0x080038fc   0x00000038   Code   RO         1531    i.UserToPMABufferCopy  usb_mem.o
    0x08003934   0x00000144   Code   RO          823    i.Write_Memory      memory.o
    0x08003a78   0x00000006   Code   RO          620    i._sys_exit         usart.o
    0x08003a7e   0x00000002   PAD
    0x08003a80   0x00000090   Code   RO         2078    i.check_fs          ff.o
    0x08003b10   0x00000014   Code   RO         2079    i.chk_chr           ff.o
    0x08003b24   0x0000039c   Code   RO         2080    i.chk_mounted       ff.o
    0x08003ec0   0x00000032   Code   RO         2081    i.clmt_clust        ff.o
    0x08003ef2   0x0000001a   Code   RO         2082    i.clust2sect        ff.o
    0x08003f0c   0x00000090   Code   RO         2083    i.cmp_lfn           ff.o
    0x08003f9c   0x000000ca   Code   RO         2084    i.create_chain      ff.o
    0x08004066   0x00000002   PAD
    0x08004068   0x00000270   Code   RO         2085    i.create_name       ff.o
    0x080042d8   0x00000040   Code   RO          528    i.delay_init        delay.o
    0x08004318   0x0000003c   Code   RO          529    i.delay_ms          delay.o
    0x08004354   0x000000de   Code   RO         2086    i.dir_find          ff.o
    0x08004432   0x00000118   Code   RO         2087    i.dir_next          ff.o
    0x0800454a   0x000000be   Code   RO         2088    i.dir_read          ff.o
    0x08004608   0x0000018c   Code   RO         2089    i.dir_register      ff.o
    0x08004794   0x0000009c   Code   RO         2091    i.dir_sdi           ff.o
    0x08004830   0x00000078   Code   RO         1963    i.disk_initialize   diskio.o
    0x080048a8   0x000000a4   Code   RO         1964    i.disk_ioctl        diskio.o
    0x0800494c   0x0000007a   Code   RO         1965    i.disk_read         diskio.o
    0x080049c6   0x00000006   Code   RO         1966    i.disk_status       diskio.o
    0x080049cc   0x00000066   Code   RO         1967    i.disk_write        diskio.o
    0x08004a32   0x00000002   PAD
    0x08004a34   0x00000080   Code   RO         2029    i.exfuns_init       exfuns.o
    0x08004ab4   0x00000016   Code   RO         2093    i.f_close           ff.o
    0x08004aca   0x000002dc   Code   RO         2096    i.f_lseek           ff.o
    0x08004da6   0x00000002   PAD
    0x08004da8   0x0000002c   Code   RO         2099    i.f_mount           ff.o
    0x08004dd4   0x0000017c   Code   RO         2100    i.f_open            ff.o
    0x08004f50   0x0000008a   Code   RO         2101    i.f_opendir         ff.o
    0x08004fda   0x000001da   Code   RO         2105    i.f_read            ff.o
    0x080051b4   0x0000006e   Code   RO         2106    i.f_readdir         ff.o
    0x08005222   0x000000b0   Code   RO         2109    i.f_sync            ff.o
    0x080052d2   0x0000021e   Code   RO         2113    i.f_write           ff.o
    0x080054f0   0x00000098   Code   RO         2382    i.ff_convert        mycc936.o
    0x08005588   0x0000000e   Code   RO         1968    i.ff_memalloc       diskio.o
    0x08005596   0x0000000e   Code   RO         1969    i.ff_memfree        diskio.o
    0x080055a4   0x00000038   Code   RO         2383    i.ff_wtoupper       mycc936.o
    0x080055dc   0x00000080   Code   RO         2114    i.fit_lfn           ff.o
    0x0800565c   0x00000092   Code   RO         2115    i.follow_path       ff.o
    0x080056ee   0x00000002   PAD
    0x080056f0   0x00000020   Code   RO          621    i.fputc             usart.o
    0x08005710   0x000000be   Code   RO         2116    i.gen_numname       ff.o
    0x080057ce   0x000000e4   Code   RO         2117    i.get_fat           ff.o
    0x080058b2   0x00000004   Code   RO         1970    i.get_fattime       diskio.o
    0x080058b6   0x0000013c   Code   RO         2118    i.get_fileinfo      ff.o
    0x080059f2   0x00000020   Code   RO         2119    i.ld_clust          ff.o
    0x08005a12   0x00000002   PAD
    0x08005a14   0x00000040   Code   RO         2424    i.low_fix_trans_bug  lower.o
    0x08005a54   0x00000034   Code   RO         2425    i.low_fix_trans_bug_read_byte  lower.o
    0x08005a88   0x00000020   Code   RO         2426    i.low_fix_trans_bug_read_byte_ack  lower.o
    0x08005aa8   0x0000000c   Code   RO         2427    i.lower_get_state   lower.o
    0x08005ab4   0x0000000c   Code   RO         2428    i.lower_set_state   lower.o
    0x08005ac0   0x00000040   Code   RO         2429    i.lower_uart_reset  lower.o
    0x08005b00   0x00000064   Code   RO         2430    i.lower_uart_rx     lower.o
    0x08005b64   0x00000078   Code   RO         2431    i.lower_uart_rx_ack  lower.o
    0x08005bdc   0x00000048   Code   RO         2432    i.lower_uart_rx_content  lower.o
    0x08005c24   0x00000070   Code   RO         2433    i.lower_uart_rx_hand_shake  lower.o
    0x08005c94   0x00000074   Code   RO         2434    i.lower_uart_rx_idle  lower.o
    0x08005d08   0x00000052   Code   RO         2435    i.lower_uart_tx     lower.o
    0x08005d5a   0x00000002   PAD
    0x08005d5c   0x000001bc   Code   RO         2436    i.lower_uart_tx_bin  lower.o
    0x08005f18   0x00000028   Code   RO         2437    i.lower_uart_tx_disconnect  lower.o
    0x08005f40   0x00000358   Code   RO         1908    i.main              main.o
    0x08006298   0x00000026   Code   RO         2120    i.mem_cmp           ff.o
    0x080062be   0x0000001a   Code   RO         2121    i.mem_cpy           ff.o
    0x080062d8   0x0000006c   Code   RO          458    i.mem_free          malloc.o
    0x08006344   0x00000044   Code   RO          459    i.mem_init          malloc.o
    0x08006388   0x000000b0   Code   RO          460    i.mem_malloc        malloc.o
    0x08006438   0x00000040   Code   RO          461    i.mem_perused       malloc.o
    0x08006478   0x00000014   Code   RO         2122    i.mem_set           ff.o
    0x0800648c   0x00000072   Code   RO         2123    i.move_window       ff.o
    0x080064fe   0x00000002   PAD
    0x08006500   0x00000024   Code   RO          462    i.myfree            malloc.o
    0x08006524   0x00000028   Code   RO          463    i.mymalloc          malloc.o
    0x0800654c   0x00000014   Code   RO          465    i.mymemset          malloc.o
    0x08006560   0x00000074   Code   RO         2124    i.pick_lfn          ff.o
    0x080065d4   0x00000034   Code   RO          434    i.power_control_pin_init  power_control.o
    0x08006608   0x00000014   Code   RO          435    i.power_control_pin_off  power_control.o
    0x0800661c   0x00000014   Code   RO          436    i.power_control_pin_on  power_control.o
    0x08006630   0x00000136   Code   RO         2125    i.put_fat           ff.o
    0x08006766   0x00000068   Code   RO         2126    i.remove_chain      ff.o
    0x080067ce   0x00000010   Code   RO         2127    i.st_clust          ff.o
    0x080067de   0x00000020   Code   RO         2128    i.sum_sfn           ff.o
    0x080067fe   0x000000ca   Code   RO         2129    i.sync              ff.o
    0x080068c8   0x0000001c   Code   RO          623    i.uart2_tx          usart.o
    0x080068e4   0x00000158   Code   RO          624    i.uart_init         usart.o
    0x08006a3c   0x0000001c   Code   RO         2438    i.uart_tx           lower.o
    0x08006a58   0x0000005c   Code   RO         1909    i.usb_port_set      main.o
    0x08006ab4   0x00000034   Code   RO         2130    i.validate          ff.o
    0x08006ae8   0x000000c4   Code   RO         2596    x$fpl$fadd          fz_ws.l(faddsub_clz.o)
    0x08006bac   0x00000184   Code   RO         2603    x$fpl$fdiv          fz_ws.l(fdiv.o)
    0x08006d30   0x0000003e   Code   RO         2606    x$fpl$ffixu         fz_ws.l(ffixu.o)
    0x08006d6e   0x00000002   PAD
    0x08006d70   0x00000026   Code   RO         2610    x$fpl$ffltu         fz_ws.l(fflt_clz.o)
    0x08006d96   0x00000002   PAD
    0x08006d98   0x00000102   Code   RO         2616    x$fpl$fmul          fz_ws.l(fmul.o)
    0x08006e9a   0x0000008c   Code   RO         2630    x$fpl$fnaninf       fz_ws.l(fnaninf.o)
    0x08006f26   0x0000000a   Code   RO         2632    x$fpl$fretinf       fz_ws.l(fretinf.o)
    0x08006f30   0x00000014   Code   RO         2597    x$fpl$frsb          fz_ws.l(faddsub_clz.o)
    0x08006f44   0x000000ea   Code   RO         2598    x$fpl$fsub          fz_ws.l(faddsub_clz.o)
    0x0800702e   0x00000000   Code   RO         2634    x$fpl$usenofp       fz_ws.l(usenofp.o)
    0x0800702e   0x00000002   PAD
    0x08007030   0x00000018   Data   RO          470    .constdata          malloc.o
    0x08007048   0x00000080   Data   RO         1037    .constdata          usb_desc.o
    0x080070c8   0x0000003a   Data   RO         2131    .constdata          ff.o
    0x08007102   0x000003c0   Data   RO         2384    .constdata          mycc936.o
    0x080074c2   0x0000001d   Data   RO         2440    .constdata          lower.o
    0x080074df   0x00000028   Data   RO         2544    .constdata          c_w.l(_printf_hex_int.o)
    0x08007507   0x00000001   PAD
    0x08007508   0x00000064   Data   RO         2032    .conststring        exfuns.o
    0x0800756c   0x00000020   Data   RO         2801    Region$$Table       anon$$obj.o


    Execution Region RW_IRAM1 (Base: 0x20000000, Size: 0x0000c9a8, Max: 0x00010000, ABSOLUTE, COMPRESSED[0x00000128])

    Base Addr    Size         Type   Attr      Idx    E Section Name        Object

    0x20000000   0x00000002   Data   RW           26    .data               flash.o
    0x20000002   0x00000005   Data   RW          217    .data               timer.o
    0x20000007   0x00000001   Data   RW          301    .data               mmc_sd.o
    0x20000008   0x00000003   Data   RW          402    .data               exti.o
    0x2000000b   0x00000001   PAD
    0x2000000c   0x0000001c   Data   RW          471    .data               malloc.o
    0x20000028   0x00000004   Data   RW          531    .data               delay.o
    0x2000002c   0x00000006   Data   RW          626    .data               usart.o
    0x20000032   0x00000002   PAD
    0x20000034   0x00000010   Data   RW          782    .data               mass_mal.o
    0x20000044   0x00000024   Data   RW          825    .data               memory.o
    0x20000068   0x00000080   Data   RW          934    .data               scsi_data.o
    0x200000e8   0x0000000c   Data   RW          997    .data               usb_bot.o
    0x200000f4   0x0000001a   Data   RW         1038    .data               usb_desc.o
    0x2000010e   0x00000002   PAD
    0x20000110   0x0000003c   Data   RW         1087    .data               usb_istr.o
    0x2000014c   0x00000094   Data   RW         1122    .data               usb_prop.o
    0x200001e0   0x00000007   Data   RW         1218    .data               usb_pwr.o
    0x200001e7   0x00000001   PAD
    0x200001e8   0x00000003   Data   RW         1377    .data               usb_core.o
    0x200001eb   0x00000001   PAD
    0x200001ec   0x00000014   Data   RW         1479    .data               usb_init.o
    0x20000200   0x00000004   Data   RW         1502    .data               usb_int.o
    0x20000204   0x0000000c   Data   RW         1911    .data               main.o
    0x20000210   0x00000002   Data   RW         1971    .data               diskio.o
    0x20000212   0x00000002   PAD
    0x20000214   0x00000154   Data   RW         2033    .data               exfuns.o
    0x20000368   0x0000000a   Data   RW         2132    .data               ff.o
    0x20000372   0x00000002   PAD
    0x20000374   0x00000028   Data   RW         2441    .data               lower.o
    0x2000039c   0x00001000   Zero   RW           25    .bss                flash.o
    0x2000139c   0x0000aa00   Zero   RW          469    .bss                malloc.o
    0x2000bd9c   0x000000c8   Zero   RW          625    .bss                usart.o
    0x2000be64   0x00000004   PAD
    0x2000be68   0x00000010   Zero   RW          781    .bss                mass_mal.o
    0x2000be78   0x00000200   Zero   RW          824    .bss                memory.o
    0x2000c078   0x00000070   Zero   RW          996    .bss                usb_bot.o
    0x2000c0e8   0x0000001c   Zero   RW         1478    .bss                usb_init.o
    0x2000c104   0x00000020   Zero   RW         1910    .bss                main.o
    0x2000c124   0x00000019   Zero   RW         2406    .bss                fontupd.o
    0x2000c13d   0x00000009   Zero   RW         2439    .bss                lower.o
    0x2000c146   0x00000002   PAD
    0x2000c148   0x00000060   Zero   RW         2675    .bss                c_w.l(libspace.o)
    0x2000c1a8   0x00000000   Zero   RW            2    HEAP                startup_stm32f10x_hd.o
    0x2000c1a8   0x00000800   Zero   RW            1    STACK               startup_stm32f10x_hd.o



  Load Region LR$$.ARM.__AT_0x68000000 (Base: 0x68000000, Size: 0x00000000, Max: 0x00032000, ABSOLUTE)

    Execution Region ER$$.ARM.__AT_0x68000000 (Base: 0x68000000, Size: 0x00032000, Max: 0x00032000, ABSOLUTE, UNINIT)

    Base Addr    Size         Type   Attr      Idx    E Section Name        Object

    0x68000000   0x00032000   Zero   RW          467    .ARM.__AT_0x68000000  malloc.o



  Load Region LR$$.ARM.__AT_0x68032000 (Base: 0x68032000, Size: 0x00000000, Max: 0x00003200, ABSOLUTE)

    Execution Region ER$$.ARM.__AT_0x68032000 (Base: 0x68032000, Size: 0x00003200, Max: 0x00003200, ABSOLUTE, UNINIT)

    Base Addr    Size         Type   Attr      Idx    E Section Name        Object

    0x68032000   0x00003200   Zero   RW          468    .ARM.__AT_0x68032000  malloc.o


==============================================================================

Image component sizes


      Code (inc. data)   RO Data    RW Data    ZI Data      Debug   Object Name

       124         12          0          4          0       1160   delay.o
       546         18          0          2          0       6532   diskio.o
       128         18        100        340          0       4022   exfuns.o
       260         54          0          3          0       2141   exti.o
      8066         66         58         10          0      36681   ff.o
       856         78          0          2       4096       9185   flash.o
         0          0          0          0         25        698   fontupd.o
       210         32          0          0          0       6071   hw_config.o
        60          8          0          0          0        415   led.o
      1350        244         29         40          9       9884   lower.o
       948        110          0         12         32       6158   main.o
       512         60         24         28     261120       6021   malloc.o
       162          0          0         16         16       2863   mass_mal.o
       616         88          0         36        512       3634   memory.o
      1402         46          0          1          0      10298   mmc_sd.o
       208         16        960          0          0       1859   mycc936.o
        92         22          0          0          0       1368   power_control.o
         0          0          0        128          0       1038   scsi_data.o
       312         28          0          0          0       1553   spi.o
        72         26        304          0       2048        880   startup_stm32f10x_hd.o
        16          0          0          0          0        965   stm32f10x_it.o
       620         62          0          0          0       3569   sys.o
       312         48          0          5          0       1745   timer.o
       574         54          0          6        200       4979   usart.o
      1228        114          0         12        112       4439   usb_bot.o
      3010        288          0          3          0      13675   usb_core.o
         0          0        128         26          0        944   usb_desc.o
        16          0          0          0          0       4481   usb_endp.o
        60         24          0         20         28       3934   usb_init.o
      1008         60          0          4          0       2106   usb_int.o
        80         18          0         60          0       1248   usb_istr.o
        96         10          0          0          0       1648   usb_mem.o
       718        128          0        148          0      11162   usb_prop.o
        64         10          0          7          0       1853   usb_pwr.o
       628        100          0          0          0       8560   usb_regs.o
      1086        130          0          0          0       9218   usb_scsi.o

    ----------------------------------------------------------------------
     25472       1972       1635        924     268204     186987   Object Totals
         0          0         32          0          0          0   (incl. Generated)
        32          0          0         11          6          0   (incl. Padding)

    ----------------------------------------------------------------------

      Code (inc. data)   RO Data    RW Data    ZI Data      Debug   Library Member Name

        90          0          0          0          0          0   __dczerorl2.o
         8          0          0          0          0         68   __main.o
       104          0          0          0          0         84   __printf.o
         0          0          0          0          0          0   __rtentry.o
        12          0          0          0          0          0   __rtentry2.o
         6          0          0          0          0          0   __rtentry4.o
        52          8          0          0          0          0   __scatter.o
        28          0          0          0          0          0   __scatter_zi.o
        48          6          0          0          0         96   _printf_char_common.o
        36          4          0          0          0         80   _printf_char_file.o
         6          0          0          0          0          0   _printf_d.o
       120         16          0          0          0         92   _printf_dec.o
        88          4         40          0          0         88   _printf_hex_int.o
       178          0          0          0          0         88   _printf_intcommon.o
         0          0          0          0          0          0   _printf_percent.o
         4          0          0          0          0          0   _printf_percent_end.o
         6          0          0          0          0          0   _printf_x.o
        18          0          0          0          0         80   exit.o
         8          0          0          0          0         68   ferror.o
         6          0          0          0          0        152   heapauxi.o
         2          0          0          0          0          0   libinit.o
         2          0          0          0          0          0   libinit2.o
         2          0          0          0          0          0   libshutdown.o
         2          0          0          0          0          0   libshutdown2.o
         8          4          0          0         96         68   libspace.o
        72          0          0          0          0         76   llsdiv.o
       238          0          0          0          0        100   lludivv7m.o
        88          0          0          0          0         76   memcmp.o
        24          4          0          0          0         84   noretval__2printf.o
       138          0          0          0          0         68   rt_memcpy_v6.o
       100          0          0          0          0         80   rt_memcpy_w.o
         2          0          0          0          0          0   rtexit.o
        10          0          0          0          0          0   rtexit2.o
        74          0          0          0          0         80   sys_stackheap_outer.o
         2          0          0          0          0         68   use_no_semi.o
         2          0          0          0          0         68   use_no_semi_2.o
       450          8          0          0          0        236   faddsub_clz.o
       388         76          0          0          0         96   fdiv.o
        62          4          0          0          0         84   ffixu.o
        38          0          0          0          0         68   fflt_clz.o
       258          4          0          0          0         84   fmul.o
       140          4          0          0          0         84   fnaninf.o
        10          0          0          0          0         68   fretinf.o
         0          0          0          0          0          0   usenofp.o

    ----------------------------------------------------------------------
      2944        142         41          0         96       2384   Library Totals
        14          0          1          0          0          0   (incl. Padding)

    ----------------------------------------------------------------------

      Code (inc. data)   RO Data    RW Data    ZI Data      Debug   Library Name

      1584         46         40          0         96       1664   c_w.l
      1346         96          0          0          0        720   fz_ws.l

    ----------------------------------------------------------------------
      2944        142         41          0         96       2384   Library Totals

    ----------------------------------------------------------------------

==============================================================================


      Code (inc. data)   RO Data    RW Data    ZI Data      Debug   

     28416       2114       1676        924     268300     176835   Grand Totals
     28416       2114       1676        296     268300     176835   ELF Image Totals (compressed)
     28416       2114       1676        296          0          0   ROM Totals

==============================================================================

    Total RO  Size (Code + RO Data)                30092 (  29.39kB)
    Total RW  Size (RW Data + ZI Data)            269224 ( 262.91kB)
    Total ROM Size (Code + RO Data + RW Data)      30388 (  29.68kB)

==============================================================================

